

Microchip MPLAB XC8 Assembler V2.20 build 20200408173844 
                                                                                               Tue Dec 15 14:23:08 2020

Microchip MPLAB XC8 C Compiler v2.20 (Free license) build 20200408173844 Og1 
     1                           	processor	18F4520
     2                           	fnconf	rparam,??,?,0
     3                           	pagewidth 120
     4                           	opt	flic
     5                           	psect	idataCOMRAM,global,class=CODE,delta=1,noexec
     6                           	psect	cinit,global,reloc=2,class=CODE,delta=1
     7                           	psect	bssCOMRAM,global,class=COMRAM,space=1,delta=1,lowdata,noexec
     8                           	psect	dataCOMRAM,global,class=COMRAM,space=1,delta=1,lowdata,noexec
     9                           	psect	bssBANK0,global,class=BANK0,space=1,delta=1,lowdata,noexec
    10                           	psect	bssBANK1,global,class=BANK1,space=1,delta=1,lowdata,noexec
    11                           	psect	bssBIGRAM,global,class=BIGRAM,space=1,delta=1,lowdata,noexec
    12                           	psect	cstackCOMRAM,global,class=COMRAM,space=1,delta=1,lowdata,noexec
    13                           	psect	text0,global,reloc=2,class=CODE,delta=1
    14                           	psect	text1,global,reloc=2,class=CODE,delta=1
    15                           	psect	text2,global,reloc=2,class=CODE,delta=1
    16                           	psect	text3,global,reloc=2,class=CODE,delta=1
    17                           	psect	text4,global,reloc=2,class=CODE,delta=1
    18                           	psect	text5,global,reloc=2,class=CODE,delta=1
    19                           	psect	text6,global,reloc=2,class=CODE,delta=1
    20                           	psect	text7,global,reloc=2,class=CODE,delta=1
    21                           	psect	text8,global,reloc=2,class=CODE,delta=1
    22                           	psect	text9,global,reloc=2,class=CODE,delta=1
    23                           	psect	text10,global,reloc=2,class=CODE,delta=1
    24                           	psect	intcode,global,reloc=2,class=CODE,delta=1
    25                           	psect	intcode_body,global,reloc=2,class=CODE,delta=1
    26                           	psect	text12,global,reloc=2,class=CODE,delta=1
    27                           	psect	text13,global,reloc=2,class=CODE,delta=1
    28                           	psect	text14,global,reloc=2,class=CODE,delta=1
    29                           	psect	text15,global,reloc=2,class=CODE,delta=1,group=1
    30                           	psect	text16,global,reloc=2,class=CODE,delta=1
    31                           	psect	text17,global,reloc=2,class=CODE,delta=1
    32                           	psect	text18,global,reloc=2,class=CODE,delta=1,group=1
    33                           	psect	intsave_regs,global,class=BIGRAM,space=1,delta=1,noexec
    34                           	psect	text19,global,reloc=2,class=CODE,delta=1,group=1
    35                           	psect	rparam,global,class=COMRAM,space=1,delta=1,noexec
    36                           	psect	temp,global,ovrld,common,class=COMRAM,space=1,delta=1
    37                           	psect	idloc,global,abs,ovrld,class=IDLOC,space=5,delta=1,noexec
    38                           	psect	config,global,abs,ovrld,class=CONFIG,space=4,delta=1,noexec
    39  0000                     
    40                           ; Version 2.20
    41                           ; Generated 12/02/2020 GMT
    42                           ; 
    43                           ; Copyright © 2020, Microchip Technology Inc. and its subsidiaries ("Microchip")
    44                           ; All rights reserved.
    45                           ; 
    46                           ; This software is developed by Microchip Technology Inc. and its subsidiaries ("Microch
      +                          ip").
    47                           ; 
    48                           ; Redistribution and use in source and binary forms, with or without modification, are
    49                           ; permitted provided that the following conditions are met:
    50                           ; 
    51                           ;     1. Redistributions of source code must retain the above copyright notice, this lis
      +                          t of
    52                           ;        conditions and the following disclaimer.
    53                           ; 
    54                           ;     2. Redistributions in binary form must reproduce the above copyright notice, this 
      +                          list
    55                           ;        of conditions and the following disclaimer in the documentation and/or other
    56                           ;        materials provided with the distribution.
    57                           ; 
    58                           ;     3. Microchip's name may not be used to endorse or promote products derived from th
      +                          is
    59                           ;        software without specific prior written permission.
    60                           ; 
    61                           ; THIS SOFTWARE IS PROVIDED BY MICROCHIP "AS IS" AND ANY EXPRESS OR IMPLIED WARRANTIES,
    62                           ; INCLUDING, BUT NOT LIMITED TO, THE IMPLIED WARRANTIES OF MERCHANTABILITY AND FITNESS F
      +                          OR
    63                           ; PURPOSE ARE DISCLAIMED.  IN NO EVENT SHALL MICROCHIP BE LIABLE FOR ANY DIRECT, INDIREC
      +                          T,
    64                           ; INCIDENTAL, SPECIAL, EXEMPLARY, OR CONSEQUENTIAL DAMAGES (INCLUDING BUT NOT LIMITED TO
    65                           ; PROCUREMENT OF SUBSTITUTE GOODS OR SERVICES; LOSS OF USE, DATA OR PROFITS; OR BUSINESS
    66                           ; INTERRUPTION) HOWSOEVER CAUSED AND ON ANY THEORY OF LIABILITY, WHETHER IN CONTRACT, ST
      +                          RICT
    67                           ; LIABILITY, OR TORT (INCLUDING NEGLIGENCE OR OTHERWISE) ARISING IN ANY WAY OUT OF THE U
      +                          SE OF
    68                           ; THIS SOFTWARE, EVEN IF ADVISED OF THE POSSIBILITY OF SUCH DAMAGE.
    69                           ; 
    70                           ; 
    71                           ; Code-generator required, PIC18F4520 Definitions
    72                           ; 
    73                           ; SFR Addresses
    74  0000                     
    75 ;;_new_task	offset	0
    76 ;;_prior	offset=-2 (param)
    77 ;;_func	offset=-4 (param)
    78 ;;_i	offset	0
    79 ;;_next_clothes	offset	2
    80 ;;_clothes_ironing	offset=-6 (param)
    81 ;;_clothes	offset	0
    82 ;;_next_task	offset	0
    83 ;;_counter	offset	0
    84 ;;_dividend	offset=-2 (param)
    85 ;;_divisor	offset=-4 (param)
    86 ;;_i	offset	0
    87 ;;_flag	offset	2
    88 ;;_clothes	offset	0
    89 ;;_product	offset	0
    90 ;;_multiplier	offset=-2 (param)
    91 ;;_multiplicand	offset=-4 (param)
    92                           
    93                           	psect	idataCOMRAM
    94  000DE2                     __pidataCOMRAM:
    95                           	callstack 0
    96                           
    97                           ;initializer for _quantum
    98  000DE2  000C               	dw	12
    99  0000                     _TOS	set	4093
   100  0000                     _TMR0L	set	4054
   101  0000                     _PORTCbits	set	3970
   102  0000                     _PORTDbits	set	3971
   103  0000                     _TRISBbits	set	3987
   104  0000                     _TRISDbits	set	3989
   105  0000                     _INTCON3bits	set	4080
   106  0000                     _T0CONbits	set	4053
   107  0000                     _STKPTR	set	4092
   108  0000                     _STATUS	set	4056
   109  0000                     _BSR	set	4064
   110  0000                     _WREG	set	4072
   111  0000                     _INTCONbits	set	4082
   112                           
   113                           ; #config settings
   114                           
   115                           	psect	cinit
   116  000CDE                     __pcinit:
   117                           	callstack 0
   118  000CDE                     start_initialization:
   119                           	callstack 0
   120  000CDE                     __initialization:
   121                           	callstack 0
   122                           
   123                           ; Initialize objects allocated to COMRAM (2 bytes)
   124                           ; load TBLPTR registers with __pidataCOMRAM
   125  000CDE  0EE2               	movlw	low __pidataCOMRAM
   126  000CE0  6EF6               	movwf	tblptrl,c
   127  000CE2  0E0D               	movlw	high __pidataCOMRAM
   128  000CE4  6EF7               	movwf	tblptrh,c
   129  000CE6  0E00               	movlw	low (__pidataCOMRAM shr (0+16))
   130  000CE8  6EF8               	movwf	tblptru,c
   131  000CEA  0009               	tblrd		*+	;fetch initializer
   132  000CEC  CFF5 F03B          	movff	tablat,__pdataCOMRAM
   133  000CF0  0009               	tblrd		*+	;fetch initializer
   134  000CF2  CFF5 F03C          	movff	tablat,__pdataCOMRAM+1
   135                           
   136                           ; Clear objects allocated to BIGRAM (512 bytes)
   137  000CF6  EE01  F0EA         	lfsr	0,__pbssBIGRAM
   138  000CFA  EE22 F000          	lfsr	2,512
   139  000CFE                     clear_0:
   140  000CFE  6AEE               	clrf	postinc0,c
   141  000D00  50DD               	movf	postdec2,w,c
   142  000D02  50D9               	movf	fsr2l,w,c
   143  000D04  E1FC               	bnz	clear_0
   144  000D06  50DA               	movf	fsr2h,w,c
   145  000D08  E1FA               	bnz	clear_0
   146                           
   147                           ; Clear objects allocated to BANK1 (234 bytes)
   148  000D0A  EE01  F000         	lfsr	0,__pbssBANK1
   149  000D0E  0EEA               	movlw	234
   150  000D10                     clear_1:
   151  000D10  6AEE               	clrf	postinc0,c
   152  000D12  06E8               	decf	wreg,f,c
   153  000D14  E1FD               	bnz	clear_1
   154                           
   155                           ; Clear objects allocated to BANK0 (112 bytes)
   156  000D16  EE00  F080         	lfsr	0,__pbssBANK0
   157  000D1A  0E70               	movlw	112
   158  000D1C                     clear_2:
   159  000D1C  6AEE               	clrf	postinc0,c
   160  000D1E  06E8               	decf	wreg,f,c
   161  000D20  E1FD               	bnz	clear_2
   162                           
   163                           ; Clear objects allocated to COMRAM (10 bytes)
   164  000D22  EE00  F031         	lfsr	0,__pbssCOMRAM
   165  000D26  0E0A               	movlw	10
   166  000D28                     clear_3:
   167  000D28  6AEE               	clrf	postinc0,c
   168  000D2A  06E8               	decf	wreg,f,c
   169  000D2C  E1FD               	bnz	clear_3
   170  000D2E                     end_of_initialization:
   171                           	callstack 0
   172  000D2E                     __end_of__initialization:
   173                           	callstack 0
   174  000D2E  0100               	movlb	0
   175  000D30  EFBB  F006         	goto	_main	;jump to C main() function
   176                           
   177                           	psect	bssCOMRAM
   178  000031                     __pbssCOMRAM:
   179                           	callstack 0
   180  000031                     _i_machine:
   181                           	callstack 0
   182  000031                     	ds	4
   183  000035                     _w_machine:
   184                           	callstack 0
   185  000035                     	ds	4
   186  000039                     _index:
   187                           	callstack 0
   188  000039                     	ds	2
   189                           
   190                           	psect	dataCOMRAM
   191  00003B                     __pdataCOMRAM:
   192                           	callstack 0
   193  00003B                     _quantum:
   194                           	callstack 0
   195  00003B                     	ds	2
   196                           
   197                           	psect	bssBANK0
   198  000080                     __pbssBANK0:
   199                           	callstack 0
   200  000080                     _f_clothes:
   201                           	callstack 0
   202  000080                     	ds	112
   203                           
   204                           	psect	bssBANK1
   205  000100                     __pbssBANK1:
   206                           	callstack 0
   207  000100                     _f_aptos:
   208                           	callstack 0
   209  000100                     	ds	234
   210                           
   211                           	psect	bssBIGRAM
   212  0001EA                     __pbssBIGRAM:
   213                           	callstack 0
   214  0001EA                     __uDynamicHeap:
   215                           	callstack 0
   216  0001EA                     	ds	512
   217                           
   218                           	psect	cstackCOMRAM
   219  000021                     __pcstackCOMRAM:
   220                           	callstack 0
   221  000021                     ??_IRQ_Timer0:
   222                           
   223                           ; 1 bytes @ 0x0
   224  000021                     	ds	16
   225                           
   226 ;;
   227 ;;Main: autosize = 0, tempsize = 0, incstack = 0, save=0
   228 ;;
   229 ;; *************** function _main *****************
   230 ;; Defined at:
   231 ;;		line 21 in file "main.c"
   232 ;; Parameters:    Size  Location     Type
   233 ;;		None
   234 ;; Auto vars:     Size  Location     Type
   235 ;;		None
   236 ;; Return value:  Size  Location     Type
   237 ;;                  1  [STACK] void 
   238 ;; Registers used:
   239 ;;		wreg, fsr0l, fsr0h, fsr1l, fsr1h, fsr2l, fsr2h, status,2, status,0, btemp+8, btemp+9, btemp+10, btemp+11, prodl, pro
      +dh
   240 ;; Tracked objects:
   241 ;;		On entry : 0/0
   242 ;;		On exit  : 0/0
   243 ;;		Unchanged: 0/0
   244 ;; Data sizes:     COMRAM   BANK0   BANK1   BANK2   BANK3   BANK4   BANK5
   245 ;;      Params:         0       0       0       0       0       0       0
   246 ;;      Locals:         0       0       0       0       0       0       0
   247 ;;      Temps:          0       0       0       0       0       0       0
   248 ;;      Totals:         0       0       0       0       0       0       0
   249 ;;Total ram usage:        0 bytes
   250 ;; Hardware stack levels required when called:    8
   251 ;; This function calls:
   252 ;;		_os_config
   253 ;;		_os_start
   254 ;;		_task_create
   255 ;; This function is called by:
   256 ;;		Startup code after reset
   257 ;; This function uses a reentrant model
   258 ;;
   259                           
   260                           	psect	text0
   261  000D76                     __ptext0:
   262                           	callstack 0
   263  000D76                     _main:
   264                           	callstack 23
   265  000D76                     
   266                           ;main.c: 24:    os_config();
   267  000D76  EC9A  F006         	call	_os_config	;wreg free
   268                           
   269                           ;main.c: 35:    task_create(2, &check_ironing);
   270  000D7A  0EAC               	movlw	low _check_ironing
   271  000D7C  6EE6               	movwf	postinc1,c
   272  000D7E  0E08               	movlw	high _check_ironing
   273  000D80  6EE6               	movwf	postinc1,c
   274  000D82  0E02               	movlw	2
   275  000D84  6EE6               	movwf	postinc1,c
   276  000D86  0E00               	movlw	0
   277  000D88  6EE6               	movwf	postinc1,c
   278  000D8A  ECEA  F003         	call	_task_create	;wreg free
   279                           
   280                           ;main.c: 36:    task_create(2, &check_wash);
   281  000D8E  0E06               	movlw	low _check_wash
   282  000D90  6EE6               	movwf	postinc1,c
   283  000D92  0E04               	movlw	high _check_wash
   284  000D94  6EE6               	movwf	postinc1,c
   285  000D96  0E02               	movlw	2
   286  000D98  6EE6               	movwf	postinc1,c
   287  000D9A  0E00               	movlw	0
   288  000D9C  6EE6               	movwf	postinc1,c
   289  000D9E  ECEA  F003         	call	_task_create	;wreg free
   290  000DA2                     
   291                           ; BSR set to: 1
   292                           ;main.c: 39:    os_start();
   293  000DA2  ECDF  F006         	call	_os_start	;wreg free
   294  000DA6                     l23:
   295  000DA6  EFD3  F006         	goto	l23
   296  000DAA  EF06  F000         	goto	start
   297  000DAE                     __end_of_main:
   298                           	callstack 0
   299                           
   300 ;; *************** function _os_start *****************
   301 ;; Defined at:
   302 ;;		line 68 in file "kernel.c"
   303 ;; Parameters:    Size  Location     Type
   304 ;;		None
   305 ;; Auto vars:     Size  Location     Type
   306 ;;		None
   307 ;; Return value:  Size  Location     Type
   308 ;;                  1  [STACK] void 
   309 ;; Registers used:
   310 ;;		None
   311 ;; Tracked objects:
   312 ;;		On entry : 3F/1
   313 ;;		On exit  : 0/0
   314 ;;		Unchanged: 0/0
   315 ;; Data sizes:     COMRAM   BANK0   BANK1   BANK2   BANK3   BANK4   BANK5
   316 ;;      Params:         0       0       0       0       0       0       0
   317 ;;      Locals:         0       0       0       0       0       0       0
   318 ;;      Temps:          0       0       0       0       0       0       0
   319 ;;      Totals:         0       0       0       0       0       0       0
   320 ;;Total ram usage:        0 bytes
   321 ;; Hardware stack levels used:    1
   322 ;; Hardware stack levels required when called:    6
   323 ;; This function calls:
   324 ;;		Nothing
   325 ;; This function is called by:
   326 ;;		_main
   327 ;; This function uses a reentrant model
   328 ;;
   329                           
   330                           	psect	text1
   331  000DBE                     __ptext1:
   332                           	callstack 0
   333  000DBE                     _os_start:
   334                           	callstack 24
   335  000DBE                     
   336                           ;kernel.c: 73:    INTCONbits.GIE = 1;
   337  000DBE  8EF2               	bsf	242,7,c	;volatile
   338                           
   339                           ;kernel.c: 76:    T0CONbits.TMR0ON = 1;
   340  000DC0  8ED5               	bsf	213,7,c	;volatile
   341                           
   342                           ;kernel.c: 79:    INTCONbits.PEIE = 1;
   343  000DC2  8CF2               	bsf	242,6,c	;volatile
   344                           
   345                           ;kernel.c: 80:    INTCONbits.INT0IE = 1;
   346  000DC4  88F2               	bsf	242,4,c	;volatile
   347                           
   348                           ;kernel.c: 81:    INTCON3bits.INT1E = 1;
   349  000DC6  86F0               	bsf	240,3,c	;volatile
   350  000DC8                     
   351                           ; _os_start: autosize = 0, savesize = 0, parsavesize = 0, tempsize = 0 parsize = 0, args
      +                          ize = 0, vargsize = 0
   352  000DC8  0012               	return		;funcret
   353  000DCA                     __end_of_os_start:
   354                           	callstack 0
   355                           
   356 ;; *************** function _os_config *****************
   357 ;; Defined at:
   358 ;;		line 87 in file "kernel.c"
   359 ;; Parameters:    Size  Location     Type
   360 ;;		None
   361 ;; Auto vars:     Size  Location     Type
   362 ;;		None
   363 ;; Return value:  Size  Location     Type
   364 ;;                  1  [STACK] void 
   365 ;; Registers used:
   366 ;;		wreg, fsr0l, fsr0h, fsr1l, fsr1h, fsr2l, fsr2h, status,2, status,0, btemp+8, btemp+9, btemp+10, btemp+11, prodl, pro
      +dh
   367 ;; Tracked objects:
   368 ;;		On entry : 0/0
   369 ;;		On exit  : 0/0
   370 ;;		Unchanged: 0/0
   371 ;; Data sizes:     COMRAM   BANK0   BANK1   BANK2   BANK3   BANK4   BANK5
   372 ;;      Params:         0       0       0       0       0       0       0
   373 ;;      Locals:         0       0       0       0       0       0       0
   374 ;;      Temps:          0       0       0       0       0       0       0
   375 ;;      Totals:         0       0       0       0       0       0       0
   376 ;;Total ram usage:        0 bytes
   377 ;; Hardware stack levels used:    1
   378 ;; Hardware stack levels required when called:    7
   379 ;; This function calls:
   380 ;;		_config_tasks
   381 ;;		_setup_timer_0
   382 ;;		_task_create
   383 ;; This function is called by:
   384 ;;		_main
   385 ;; This function uses a reentrant model
   386 ;;
   387                           
   388                           	psect	text2
   389  000D34                     __ptext2:
   390                           	callstack 0
   391  000D34                     _os_config:
   392                           	callstack 23
   393  000D34                     
   394                           ;kernel.c: 96:    f_aptos.task_running = 0;
   395  000D34  0101               	movlb	1	; () banked
   396  000D36  6BE8               	clrf	(_f_aptos+232)& (0+255),b
   397  000D38  6BE9               	clrf	(_f_aptos+233)& (0+255),b
   398                           
   399                           ;kernel.c: 97:    f_aptos.ready_queue_size = 0;
   400  000D3A  6BE6               	clrf	(_f_aptos+230)& (0+255),b
   401  000D3C  6BE7               	clrf	(_f_aptos+231)& (0+255),b
   402                           
   403                           ;kernel.c: 98:    f_clothes.fila_size = 0;
   404  000D3E  0100               	movlb	0	; () banked
   405  000D40  6BB0               	clrf	(_f_clothes+48)& (0+255),b
   406  000D42  6BB1               	clrf	(_f_clothes+49)& (0+255),b
   407                           
   408                           ;kernel.c: 99:    f_clothes.clothes_finished_size = 0;
   409  000D44  6BEE               	clrf	(_f_clothes+110)& (0+255),b
   410  000D46  6BEF               	clrf	(_f_clothes+111)& (0+255),b
   411                           
   412                           ;kernel.c: 100:    w_machine.counter = 0;
   413  000D48  6A35               	clrf	_w_machine^0,c
   414  000D4A  6A36               	clrf	(_w_machine+1)^0,c
   415                           
   416                           ;kernel.c: 101:    i_machine.counter = 0;
   417  000D4C  6A31               	clrf	_i_machine^0,c
   418  000D4E  6A32               	clrf	(_i_machine+1)^0,c
   419                           
   420                           ;kernel.c: 102:    w_machine.flag = 0;
   421  000D50  6A37               	clrf	(_w_machine+2)^0,c
   422  000D52  6A38               	clrf	(_w_machine+3)^0,c
   423                           
   424                           ;kernel.c: 103:    i_machine.flag = 0;
   425  000D54  6A33               	clrf	(_i_machine+2)^0,c
   426  000D56  6A34               	clrf	(_i_machine+3)^0,c
   427  000D58                     
   428                           ; BSR set to: 0
   429                           ;kernel.c: 106:    setup_timer_0();
   430  000D58  ECD7  F006         	call	_setup_timer_0	;wreg free
   431  000D5C                     
   432                           ;kernel.c: 109:    task_create(0, &task_idle);
   433  000D5C  0ED6               	movlw	low _task_idle
   434  000D5E  6EE6               	movwf	postinc1,c
   435  000D60  0E0D               	movlw	high _task_idle
   436  000D62  6EE6               	movwf	postinc1,c
   437  000D64  0E00               	movlw	0
   438  000D66  6EE6               	movwf	postinc1,c
   439  000D68  0E00               	movlw	0
   440  000D6A  6EE6               	movwf	postinc1,c
   441  000D6C  ECEA  F003         	call	_task_create	;wreg free
   442  000D70                     
   443                           ; BSR set to: 1
   444                           ;kernel.c: 112:    config_tasks();
   445  000D70  ECE5  F006         	call	_config_tasks	;wreg free
   446  000D74                     
   447                           ; _os_config: autosize = 0, savesize = 0, parsavesize = 0, tempsize = 0 parsize = 0, arg
      +                          size = 0, vargsize = 0
   448  000D74  0012               	return		;funcret
   449  000D76                     __end_of_os_config:
   450                           	callstack 0
   451                           
   452 ;; *************** function _task_create *****************
   453 ;; Defined at:
   454 ;;		line 50 in file "kernel.c"
   455 ;; Parameters:    Size  Location     Type
   456 ;;  prior           2  [STACK] unsigned int 
   457 ;;  func            2  [STACK] PTR FTN()void 
   458 ;;		 -> task_idle(1), check_wash(1), check_ironing(1), 
   459 ;; Auto vars:     Size  Location     Type
   460 ;;  new_task       46  [STACK] struct tcb
   461 ;; Return value:  Size  Location     Type
   462 ;;                  1  [STACK] void 
   463 ;; Registers used:
   464 ;;		wreg, fsr0l, fsr0h, fsr1l, fsr1h, fsr2l, fsr2h, status,2, status,0, btemp+8, btemp+9, btemp+10, btemp+11, prodl, pro
      +dh
   465 ;; Tracked objects:
   466 ;;		On entry : 0/0
   467 ;;		On exit  : 3F/1
   468 ;;		Unchanged: 0/0
   469 ;; Data sizes:     COMRAM   BANK0   BANK1   BANK2   BANK3   BANK4   BANK5
   470 ;;      Params:         0       0       0       0       0       0       0
   471 ;;      Locals:         0       0       0       0       0       0       0
   472 ;;      Temps:          0       0       0       0       0       0       0
   473 ;;      Totals:         0       0       0       0       0       0       0
   474 ;;Total ram usage:        0 bytes
   475 ;; Hardware stack levels used:    1
   476 ;; Hardware stack levels required when called:    6
   477 ;; This function calls:
   478 ;;		Nothing
   479 ;; This function is called by:
   480 ;;		_main
   481 ;;		_os_config
   482 ;; This function uses a reentrant model
   483 ;;
   484                           
   485                           	psect	text3
   486  0007D4                     __ptext3:
   487                           	callstack 0
   488  0007D4                     _task_create:
   489                           	callstack 0
   490                           
   491                           ; autosize = 46, savesize = 0, parsavesize = 0, tempsize = 0 parsize = 4, argsize = 4 va
      +                          rgsize = 0, retsize = 0 argfudge = 0
   492  0007D4  0E2E               	movlw	46
   493  0007D6  26E1               	addwf	fsr1l,f,c
   494  0007D8  0E00               	movlw	0
   495  0007DA  22E2               	addwfc	fsr1h,f,c
   496  0007DC                     
   497                           ;kernel.c: 50: void task_create(u_int prior, task_ptr func);kernel.c: 51: {;kernel.c: 52
      +                          :    tcb_t new_task;;kernel.c: 54:    new_task.task_id = f_aptos.ready_queue_size + 1;
   498  0007DC  0E01               	movlw	1
   499  0007DE  0101               	movlb	1	; () banked
   500  0007E0  25E6               	addwf	(_f_aptos+230)& (0+255),w,b
   501  0007E2  6E0B               	movwf	(btemp+10)^0,c
   502  0007E4  0E00               	movlw	0
   503  0007E6  21E7               	addwfc	(_f_aptos+231)& (0+255),w,b
   504  0007E8  6E0C               	movwf	(btemp+11)^0,c
   505                           
   506                           ;stkvar	_new_task @ sp[(-46)+0]
   507  0007EA  0ED2               	movlw	-46
   508  0007EC  C00B  FFE3         	movff	btemp+10,plusw1
   509  0007F0  0ED3               	movlw	-45
   510  0007F2  C00C  FFE3         	movff	btemp+11,plusw1
   511  0007F6                     
   512                           ; BSR set to: 1
   513                           ;kernel.c: 55:    new_task.task_prior = prior;
   514                           ;stkvar	_prior @ sp[(-46)+-2]
   515  0007F6  50E1               	movf	fsr1l,w,c
   516  0007F8  0FD0               	addlw	-48
   517  0007FA  6ED9               	movwf	fsr2l,c
   518  0007FC  50E2               	movf	fsr1h,w,c
   519  0007FE  6EDA               	movwf	fsr2h,c
   520  000800  0EFF               	movlw	255
   521  000802  22DA               	addwfc	fsr2h,f,c
   522                           
   523                           ;stkvar	_new_task @ sp[(-46)+0]
   524  000804  0ED5               	movlw	213
   525  000806  24E1               	addwf	fsr1l,w,c
   526  000808  6EE9               	movwf	fsr0l,c
   527  00080A  0EFF               	movlw	255
   528  00080C  20E2               	addwfc	fsr1h,w,c
   529  00080E  6EEA               	movwf	fsr0h,c
   530  000810  CFDE FFEE          	movff	postinc2,postinc0
   531  000814  CFDD FFED          	movff	postdec2,postdec0
   532  000818                     
   533                           ; BSR set to: 1
   534                           ;kernel.c: 56:    new_task.task_state = READY;
   535                           ;stkvar	_new_task @ sp[(-46)+0]
   536  000818  0ED4               	movlw	212
   537  00081A  24E1               	addwf	fsr1l,w,c
   538  00081C  6ED9               	movwf	fsr2l,c
   539  00081E  0EFF               	movlw	255
   540  000820  20E2               	addwfc	fsr1h,w,c
   541  000822  6EDA               	movwf	fsr2h,c
   542  000824  0E00               	movlw	0
   543  000826  6EDF               	movwf	indf2,c
   544  000828                     
   545                           ; BSR set to: 1
   546                           ;kernel.c: 57:    new_task.task_func = func;
   547                           ;stkvar	_func @ sp[(-46)+-4]
   548  000828  50E1               	movf	fsr1l,w,c
   549  00082A  0FCE               	addlw	-50
   550  00082C  6ED9               	movwf	fsr2l,c
   551  00082E  50E2               	movf	fsr1h,w,c
   552  000830  6EDA               	movwf	fsr2h,c
   553  000832  0EFF               	movlw	255
   554  000834  22DA               	addwfc	fsr2h,f,c
   555                           
   556                           ;stkvar	_new_task @ sp[(-46)+0]
   557  000836  0ED7               	movlw	215
   558  000838  24E1               	addwf	fsr1l,w,c
   559  00083A  6EE9               	movwf	fsr0l,c
   560  00083C  0EFF               	movlw	255
   561  00083E  20E2               	addwfc	fsr1h,w,c
   562  000840  6EEA               	movwf	fsr0h,c
   563  000842  CFDE FFEE          	movff	postinc2,postinc0
   564  000846  CFDD FFED          	movff	postdec2,postdec0
   565  00084A                     
   566                           ; BSR set to: 1
   567                           ;kernel.c: 58:    new_task.task_stack.size = 0;
   568                           ;stkvar	_new_task @ sp[(-46)+0]
   569  00084A  0EF9               	movlw	249
   570  00084C  24E1               	addwf	fsr1l,w,c
   571  00084E  6ED9               	movwf	fsr2l,c
   572  000850  0EFF               	movlw	255
   573  000852  20E2               	addwfc	fsr1h,w,c
   574  000854  6EDA               	movwf	fsr2h,c
   575  000856  0E00               	movlw	0
   576  000858  6EDE               	movwf	postinc2,c
   577  00085A  0E00               	movlw	0
   578  00085C  6EDD               	movwf	postdec2,c
   579  00085E                     
   580                           ; BSR set to: 1
   581                           ;kernel.c: 61:    f_aptos.ready_queue[f_aptos.ready_queue_size] = new_task;
   582                           ;stkvar	_new_task @ sp[(-46)+0]
   583  00085E  0ED2               	movlw	210
   584  000860  24E1               	addwf	fsr1l,w,c
   585  000862  6ED9               	movwf	fsr2l,c
   586  000864  0EFF               	movlw	255
   587  000866  20E2               	addwfc	fsr1h,w,c
   588  000868  6EDA               	movwf	fsr2h,c
   589  00086A  EE01  F0E6         	lfsr	0,_f_aptos+230
   590  00086E  CFEE F00B          	movff	postinc0,btemp+10
   591  000872  CFED F00C          	movff	postdec0,btemp+11
   592  000876  0E2E               	movlw	46
   593  000878  020B               	mulwf	(btemp+10)^0,c
   594  00087A  CFF3 F009          	movff	prodl,btemp+8
   595  00087E  CFF4 F00A          	movff	prodh,btemp+9
   596  000882  020C               	mulwf	(btemp+11)^0,c
   597  000884  50F3               	movf	prodl,w,c
   598  000886  260A               	addwf	(btemp+9)^0,f,c
   599  000888  0E00               	movlw	low _f_aptos
   600  00088A  2409               	addwf	(btemp+8)^0,w,c
   601  00088C  6EE9               	movwf	fsr0l,c
   602  00088E  0E01               	movlw	high _f_aptos
   603  000890  200A               	addwfc	(btemp+9)^0,w,c
   604  000892  6EEA               	movwf	fsr0h,c
   605  000894  0E2D               	movlw	45
   606  000896                     u51:
   607  000896  CFDB FFEB          	movff	plusw2,plusw0
   608  00089A  06E8               	decf	wreg,f,c
   609  00089C  E2FC               	bc	u51
   610  00089E                     
   611                           ; BSR set to: 1
   612                           ;kernel.c: 62:    f_aptos.ready_queue_size++;
   613  00089E  4BE6               	infsnz	(_f_aptos+230)& (0+255),f,b
   614  0008A0  2BE7               	incf	(_f_aptos+231)& (0+255),f,b
   615  0008A2                     
   616                           ; BSR set to: 1
   617                           ; _task_create: autosize = 46, savesize = 0, parsavesize = 0, tempsize = 0 parsize = 4, 
      +                          argsize = 4, vargsize = 0
   618  0008A2  0ECE               	movlw	206
   619  0008A4  26E1               	addwf	fsr1l,f,c
   620  0008A6  0EFF               	movlw	255
   621  0008A8  22E2               	addwfc	fsr1h,f,c
   622  0008AA  0012               	return		;funcret
   623  0008AC                     __end_of_task_create:
   624                           	callstack 0
   625                           
   626 ;; *************** function _setup_timer_0 *****************
   627 ;; Defined at:
   628 ;;		line 17 in file "timer.c"
   629 ;; Parameters:    Size  Location     Type
   630 ;;		None
   631 ;; Auto vars:     Size  Location     Type
   632 ;;		None
   633 ;; Return value:  Size  Location     Type
   634 ;;                  1  [STACK] void 
   635 ;; Registers used:
   636 ;;		wreg, status,2
   637 ;; Tracked objects:
   638 ;;		On entry : 3F/0
   639 ;;		On exit  : 0/0
   640 ;;		Unchanged: 0/0
   641 ;; Data sizes:     COMRAM   BANK0   BANK1   BANK2   BANK3   BANK4   BANK5
   642 ;;      Params:         0       0       0       0       0       0       0
   643 ;;      Locals:         0       0       0       0       0       0       0
   644 ;;      Temps:          0       0       0       0       0       0       0
   645 ;;      Totals:         0       0       0       0       0       0       0
   646 ;;Total ram usage:        0 bytes
   647 ;; Hardware stack levels used:    1
   648 ;; Hardware stack levels required when called:    6
   649 ;; This function calls:
   650 ;;		Nothing
   651 ;; This function is called by:
   652 ;;		_os_config
   653 ;; This function uses a reentrant model
   654 ;;
   655                           
   656                           	psect	text4
   657  000DAE                     __ptext4:
   658                           	callstack 0
   659  000DAE                     _setup_timer_0:
   660                           	callstack 23
   661  000DAE                     
   662                           ;timer.c: 19:    INTCONbits.TMR0IE = 1;
   663  000DAE  8AF2               	bsf	242,5,c	;volatile
   664                           
   665                           ;timer.c: 20:    INTCONbits.PEIE = 1;
   666  000DB0  8CF2               	bsf	242,6,c	;volatile
   667                           
   668                           ;timer.c: 21:    T0CONbits.T0CS = 0;
   669  000DB2  9AD5               	bcf	213,5,c	;volatile
   670                           
   671                           ;timer.c: 22:    T0CONbits.PSA = 0;
   672  000DB4  96D5               	bcf	213,3,c	;volatile
   673  000DB6                     
   674                           ;timer.c: 23:    T0CONbits.T0PS = 0b111;
   675  000DB6  0E07               	movlw	7
   676  000DB8  12D5               	iorwf	213,f,c	;volatile
   677  000DBA                     
   678                           ;timer.c: 24:    TMR0L = 0;
   679  000DBA  6AD6               	clrf	214,c	;volatile
   680  000DBC                     
   681                           ; _setup_timer_0: autosize = 0, savesize = 0, parsavesize = 0, tempsize = 0 parsize = 0,
      +                           argsize = 0, vargsize = 0
   682  000DBC  0012               	return		;funcret
   683  000DBE                     __end_of_setup_timer_0:
   684                           	callstack 0
   685                           
   686 ;; *************** function _config_tasks *****************
   687 ;; Defined at:
   688 ;;		line 21 in file "tasks.c"
   689 ;; Parameters:    Size  Location     Type
   690 ;;		None
   691 ;; Auto vars:     Size  Location     Type
   692 ;;		None
   693 ;; Return value:  Size  Location     Type
   694 ;;                  1  [STACK] void 
   695 ;; Registers used:
   696 ;;		None
   697 ;; Tracked objects:
   698 ;;		On entry : 3F/1
   699 ;;		On exit  : 0/0
   700 ;;		Unchanged: 0/0
   701 ;; Data sizes:     COMRAM   BANK0   BANK1   BANK2   BANK3   BANK4   BANK5
   702 ;;      Params:         0       0       0       0       0       0       0
   703 ;;      Locals:         0       0       0       0       0       0       0
   704 ;;      Temps:          0       0       0       0       0       0       0
   705 ;;      Totals:         0       0       0       0       0       0       0
   706 ;;Total ram usage:        0 bytes
   707 ;; Hardware stack levels used:    1
   708 ;; Hardware stack levels required when called:    6
   709 ;; This function calls:
   710 ;;		Nothing
   711 ;; This function is called by:
   712 ;;		_os_config
   713 ;; This function uses a reentrant model
   714 ;;
   715                           
   716                           	psect	text5
   717  000DCA                     __ptext5:
   718                           	callstack 0
   719  000DCA                     _config_tasks:
   720                           	callstack 23
   721  000DCA                     
   722                           ;tasks.c: 24:    TRISDbits.RD2 = 0;
   723  000DCA  9495               	bcf	149,2,c	;volatile
   724                           
   725                           ;tasks.c: 25:    TRISDbits.RD3 = 0;
   726  000DCC  9695               	bcf	149,3,c	;volatile
   727                           
   728                           ;tasks.c: 26:    TRISDbits.RD4 = 0;
   729  000DCE  9895               	bcf	149,4,c	;volatile
   730                           
   731                           ;tasks.c: 28:    TRISBbits.TRISB0 = 0;
   732  000DD0  9093               	bcf	147,0,c	;volatile
   733                           
   734                           ;tasks.c: 29:    TRISBbits.TRISB1 = 0;
   735  000DD2  9293               	bcf	147,1,c	;volatile
   736  000DD4                     
   737                           ; _config_tasks: autosize = 0, savesize = 0, parsavesize = 0, tempsize = 0 parsize = 0, 
      +                          argsize = 0, vargsize = 0
   738  000DD4  0012               	return		;funcret
   739  000DD6                     __end_of_config_tasks:
   740                           	callstack 0
   741                           
   742 ;; *************** function _task_idle *****************
   743 ;; Defined at:
   744 ;;		line 118 in file "kernel.c"
   745 ;; Parameters:    Size  Location     Type
   746 ;;		None
   747 ;; Auto vars:     Size  Location     Type
   748 ;;		None
   749 ;; Return value:  Size  Location     Type
   750 ;;                  1  [STACK] void 
   751 ;; Registers used:
   752 ;;		None
   753 ;; Tracked objects:
   754 ;;		On entry : 0/0
   755 ;;		On exit  : 0/0
   756 ;;		Unchanged: 0/0
   757 ;; Data sizes:     COMRAM   BANK0   BANK1   BANK2   BANK3   BANK4   BANK5
   758 ;;      Params:         0       0       0       0       0       0       0
   759 ;;      Locals:         0       0       0       0       0       0       0
   760 ;;      Temps:          0       0       0       0       0       0       0
   761 ;;      Totals:         0       0       0       0       0       0       0
   762 ;;Total ram usage:        0 bytes
   763 ;; Hardware stack levels used:    1
   764 ;; Hardware stack levels required when called:    4
   765 ;; This function calls:
   766 ;;		Nothing
   767 ;; This function is called by:
   768 ;;		_os_config
   769 ;; This function uses a reentrant model
   770 ;;
   771                           
   772                           	psect	text6
   773  000DD6                     __ptext6:
   774                           	callstack 0
   775  000DD6                     _task_idle:
   776                           	callstack 24
   777  000DD6                     l91:
   778  000DD6  EFEB  F006         	goto	l91
   779                           
   780                           ; _task_idle: autosize = 0, savesize = 0, parsavesize = 0, tempsize = 0 parsize = 0, arg
      +                          size = 0, vargsize = 0
   781  000DDA  0012               	return		;funcret
   782  000DDC                     __end_of_task_idle:
   783                           	callstack 0
   784                           
   785 ;; *************** function _check_wash *****************
   786 ;; Defined at:
   787 ;;		line 94 in file "tasks.c"
   788 ;; Parameters:    Size  Location     Type
   789 ;;		None
   790 ;; Auto vars:     Size  Location     Type
   791 ;;  i               2  [STACK] int 
   792 ;;  next_clothes    6  [STACK] struct clothes_control
   793 ;; Return value:  Size  Location     Type
   794 ;;                  1  [STACK] void 
   795 ;; Registers used:
   796 ;;		wreg, fsr0l, fsr0h, fsr1l, fsr1h, fsr2l, fsr2h, status,2, status,0, btemp, btemp+8, btemp+9, btemp+10, btemp+11, pro
      +dl, prodh
   797 ;; Tracked objects:
   798 ;;		On entry : 0/0
   799 ;;		On exit  : 0/0
   800 ;;		Unchanged: 0/0
   801 ;; Data sizes:     COMRAM   BANK0   BANK1   BANK2   BANK3   BANK4   BANK5
   802 ;;      Params:         0       0       0       0       0       0       0
   803 ;;      Locals:         0       0       0       0       0       0       0
   804 ;;      Temps:          0       0       0       0       0       0       0
   805 ;;      Totals:         0       0       0       0       0       0       0
   806 ;;Total ram usage:        0 bytes
   807 ;; Hardware stack levels used:    1
   808 ;; Hardware stack levels required when called:    5
   809 ;; This function calls:
   810 ;;		_run_wash
   811 ;; This function is called by:
   812 ;;		_main
   813 ;; This function uses a reentrant model
   814 ;;
   815                           
   816                           	psect	text7
   817  000406                     __ptext7:
   818                           	callstack 0
   819  000406                     _check_wash:
   820                           	callstack 0
   821                           
   822                           ; autosize = 8, savesize = 0, parsavesize = 0, tempsize = 0 parsize = 0, argsize = 0 var
      +                          gsize = 0, retsize = 0 argfudge = 0
   823  000406  0E08               	movlw	8
   824  000408  26E1               	addwf	fsr1l,f,c
   825  00040A  0E00               	movlw	0
   826  00040C  22E2               	addwfc	fsr1h,f,c
   827  00040E                     l155:
   828  00040E                     
   829                           ;tasks.c: 97:       if (w_machine.flag == 0 && f_clothes.fila_size > 0) {
   830  00040E  5037               	movf	(_w_machine+2)^0,w,c
   831  000410  1038               	iorwf	(_w_machine+3)^0,w,c
   832  000412  A4D8               	btfss	status,2,c
   833  000414  EF0E  F002         	goto	u20_21
   834  000418  EF10  F002         	goto	u20_20
   835  00041C                     u20_21:
   836  00041C  EFAB  F002         	goto	l1266
   837  000420                     u20_20:
   838  000420  0100               	movlb	0	; () banked
   839  000422  51B0               	movf	(_f_clothes+48)& (0+255),w,b
   840  000424  11B1               	iorwf	(_f_clothes+49)& (0+255),w,b
   841  000426  B4D8               	btfsc	status,2,c
   842  000428  EF18  F002         	goto	u21_21
   843  00042C  EF1A  F002         	goto	u21_20
   844  000430                     u21_21:
   845  000430  EFAB  F002         	goto	l1266
   846  000434                     u21_20:
   847  000434                     
   848                           ; BSR set to: 0
   849                           ;tasks.c: 99:          clothes_control_t next_clothes = f_clothes.clothes_waiting[0];
   850  000434  EE20  F080         	lfsr	2,_f_clothes
   851                           
   852                           ;stkvar	_next_clothes @ sp[(-8)+2]
   853  000438  0E06               	movlw	6
   854  00043A  6E01               	movwf	btemp^0,c
   855  00043C  0EFA               	movlw	-6
   856  00043E                     us22_2999:
   857  00043E  CFDE FFE3          	movff	postinc2,plusw1
   858  000442  28E8               	incf	wreg,w,c
   859  000444  2E01               	decfsz	btemp^0,f,c
   860  000446  D7FB               	bra	us22_2999
   861  000448                     
   862                           ; BSR set to: 0
   863                           ;tasks.c: 101:          for (int i = 0; i < 8 - 1; i++) {
   864                           ;stkvar	_i @ sp[(-8)+0]
   865  000448  0EF8               	movlw	-8
   866  00044A  6AE3               	clrf	plusw1,c
   867  00044C  0EF9               	movlw	-7
   868  00044E  6AE3               	clrf	plusw1,c
   869  000450                     l1248:
   870                           
   871                           ;tasks.c: 102:             f_clothes.clothes_waiting[i] = f_clothes.clothes_waiting[i + 
      +                          1];
   872                           ;stkvar	_i @ sp[(-8)+0]
   873  000450  0EF8               	movlw	-8
   874  000452  CFE3 F00B          	movff	plusw1,btemp+10
   875  000456  0EF9               	movlw	-7
   876  000458  CFE3 F00C          	movff	plusw1,btemp+11
   877  00045C  0E06               	movlw	6
   878  00045E  020B               	mulwf	(btemp+10)^0,c
   879  000460  CFF3 F009          	movff	prodl,btemp+8
   880  000464  CFF4 F00A          	movff	prodh,btemp+9
   881  000468  020C               	mulwf	(btemp+11)^0,c
   882  00046A  50F3               	movf	prodl,w,c
   883  00046C  260A               	addwf	(btemp+9)^0,f,c
   884  00046E  0E86               	movlw	low (_f_clothes+6)
   885  000470  2409               	addwf	(btemp+8)^0,w,c
   886  000472  6ED9               	movwf	fsr2l,c
   887  000474  0E00               	movlw	high (_f_clothes+6)
   888  000476  200A               	addwfc	(btemp+9)^0,w,c
   889  000478  6EDA               	movwf	fsr2h,c
   890                           
   891                           ;stkvar	_i @ sp[(-8)+0]
   892  00047A  0EF8               	movlw	-8
   893  00047C  CFE3 F00B          	movff	plusw1,btemp+10
   894  000480  0EF9               	movlw	-7
   895  000482  CFE3 F00C          	movff	plusw1,btemp+11
   896  000486  0E06               	movlw	6
   897  000488  020B               	mulwf	(btemp+10)^0,c
   898  00048A  CFF3 F009          	movff	prodl,btemp+8
   899  00048E  CFF4 F00A          	movff	prodh,btemp+9
   900  000492  020C               	mulwf	(btemp+11)^0,c
   901  000494  50F3               	movf	prodl,w,c
   902  000496  260A               	addwf	(btemp+9)^0,f,c
   903  000498  0E80               	movlw	low _f_clothes
   904  00049A  2409               	addwf	(btemp+8)^0,w,c
   905  00049C  6EE9               	movwf	fsr0l,c
   906  00049E  0E00               	movlw	high _f_clothes
   907  0004A0  200A               	addwfc	(btemp+9)^0,w,c
   908  0004A2  6EEA               	movwf	fsr0h,c
   909  0004A4  0E05               	movlw	5
   910  0004A6                     u23_21:
   911  0004A6  CFDB FFEB          	movff	plusw2,plusw0
   912  0004AA  06E8               	decf	wreg,f,c
   913  0004AC  E2FC               	bc	u23_21
   914  0004AE                     
   915                           ;tasks.c: 103:          }
   916                           ;stkvar	_i @ sp[(-8)+0]
   917  0004AE  0EF8               	movlw	-8
   918  0004B0  50E3               	movf	plusw1,w,c
   919  0004B2  0F01               	addlw	1
   920  0004B4  6E01               	movwf	btemp^0,c
   921  0004B6  0EF8               	movlw	-8
   922  0004B8  C001  FFE3         	movff	btemp,plusw1
   923  0004BC  6A01               	clrf	btemp^0,c
   924  0004BE  0EF9               	movlw	-7
   925  0004C0  50E3               	movf	plusw1,w,c
   926  0004C2  2001               	addwfc	btemp^0,w,c
   927  0004C4  6E01               	movwf	btemp^0,c
   928  0004C6  0EF9               	movlw	-7
   929  0004C8  C001  FFE3         	movff	btemp,plusw1
   930  0004CC                     
   931                           ;stkvar	_i @ sp[(-8)+0]
   932  0004CC  0EF9               	movlw	-7
   933  0004CE  BEE3               	btfsc	plusw1,7,c
   934  0004D0  EF77  F002         	goto	u24_21
   935  0004D4  0EF9               	movlw	-7
   936  0004D6  50E3               	movf	plusw1,w,c
   937  0004D8  E10C               	bnz	u24_20
   938  0004DA  0EF8               	movlw	-8
   939  0004DC  CFE3 F001          	movff	plusw1,btemp
   940  0004E0  0E07               	movlw	7
   941  0004E2  5E01               	subwf	btemp^0,f,c
   942  0004E4  A0D8               	btfss	status,0,c
   943  0004E6  EF77  F002         	goto	u24_21
   944  0004EA  EF79  F002         	goto	u24_20
   945  0004EE                     u24_21:
   946  0004EE  EF28  F002         	goto	l1248
   947  0004F2                     u24_20:
   948  0004F2                     
   949                           ;tasks.c: 105:          f_clothes.fila_size--;
   950  0004F2  0100               	movlb	0	; () banked
   951  0004F4  07B0               	decf	(_f_clothes+48)& (0+255),f,b
   952  0004F6  A0D8               	btfss	status,0,c
   953  0004F8  07B1               	decf	(_f_clothes+49)& (0+255),f,b
   954  0004FA                     
   955                           ; BSR set to: 0
   956                           ;tasks.c: 106:          f_clothes.clothes_washing = next_clothes;
   957                           ;stkvar	_next_clothes @ sp[(-8)+2]
   958  0004FA  0EFA               	movlw	250
   959  0004FC  24E1               	addwf	fsr1l,w,c
   960  0004FE  6ED9               	movwf	fsr2l,c
   961  000500  0EFF               	movlw	255
   962  000502  20E2               	addwfc	fsr1h,w,c
   963  000504  6EDA               	movwf	fsr2h,c
   964  000506  EE00  F0B2         	lfsr	0,_f_clothes+50
   965  00050A  0E05               	movlw	5
   966  00050C                     u25_21:
   967  00050C  CFDB FFEB          	movff	plusw2,plusw0
   968  000510  06E8               	decf	wreg,f,c
   969  000512  E2FC               	bc	u25_21
   970  000514                     
   971                           ; BSR set to: 0
   972                           ;tasks.c: 107:          w_machine.flag = 1;
   973  000514  0E00               	movlw	0
   974  000516  6E38               	movwf	(_w_machine+3)^0,c
   975  000518  0E01               	movlw	1
   976  00051A  6E37               	movwf	(_w_machine+2)^0,c
   977  00051C                     
   978                           ; BSR set to: 0
   979                           ;tasks.c: 108:          PORTDbits.RD4 = ~PORTDbits.RD4;
   980  00051C  B883               	btfsc	131,4,c	;volatile
   981  00051E  EF93  F002         	goto	u26_21
   982  000522  EF96  F002         	goto	u26_20
   983  000526                     u26_21:
   984  000526  0E01               	movlw	1
   985  000528  EF97  F002         	goto	u26_26
   986  00052C                     u26_20:
   987  00052C  0E00               	movlw	0
   988  00052E                     u26_26:
   989  00052E  0AFF               	xorlw	255
   990  000530  6E0C               	movwf	(btemp+11)^0,c
   991  000532  3A0C               	swapf	(btemp+11)^0,f,c
   992  000534  5083               	movf	131,w,c	;volatile
   993  000536  180C               	xorwf	(btemp+11)^0,w,c
   994  000538  0BEF               	andlw	-17
   995  00053A  180C               	xorwf	(btemp+11)^0,w,c
   996  00053C  6E83               	movwf	131,c	;volatile
   997  00053E                     
   998                           ; BSR set to: 0
   999                           ;tasks.c: 111:          next_clothes.state = 0;
  1000                           ;stkvar	_next_clothes @ sp[(-8)+2]
  1001  00053E  0EFE               	movlw	254
  1002  000540  24E1               	addwf	fsr1l,w,c
  1003  000542  6ED9               	movwf	fsr2l,c
  1004  000544  0EFF               	movlw	255
  1005  000546  20E2               	addwfc	fsr1h,w,c
  1006  000548  6EDA               	movwf	fsr2h,c
  1007  00054A  0E00               	movlw	0
  1008  00054C  6EDE               	movwf	postinc2,c
  1009  00054E  0E00               	movlw	0
  1010  000550  6EDD               	movwf	postdec2,c
  1011  000552                     
  1012                           ; BSR set to: 0
  1013                           ;tasks.c: 112:          run_wash();
  1014  000552  ECAB  F004         	call	_run_wash	;wreg free
  1015  000556                     l1266:
  1016                           
  1017                           ;tasks.c: 115:       if (w_machine.flag == 1 && f_clothes.clothes_washing.state == 0) {
  1018  000556  0437               	decf	(_w_machine+2)^0,w,c
  1019  000558  1038               	iorwf	(_w_machine+3)^0,w,c
  1020  00055A  A4D8               	btfss	status,2,c
  1021  00055C  EFB2  F002         	goto	u27_21
  1022  000560  EFB4  F002         	goto	u27_20
  1023  000564                     u27_21:
  1024  000564  EF07  F002         	goto	l155
  1025  000568                     u27_20:
  1026  000568  0100               	movlb	0	; () banked
  1027  00056A  51B6               	movf	(_f_clothes+54)& (0+255),w,b
  1028  00056C  11B7               	iorwf	(_f_clothes+55)& (0+255),w,b
  1029  00056E  A4D8               	btfss	status,2,c
  1030  000570  EFBC  F002         	goto	u28_21
  1031  000574  EFBE  F002         	goto	u28_20
  1032  000578                     u28_21:
  1033  000578  EF07  F002         	goto	l155
  1034  00057C                     u28_20:
  1035  00057C                     
  1036                           ; BSR set to: 0
  1037                           ;tasks.c: 116:          run_wash();
  1038  00057C  ECAB  F004         	call	_run_wash	;wreg free
  1039  000580  EF07  F002         	goto	l155
  1040                           
  1041                           ; _check_wash: autosize = 8, savesize = 0, parsavesize = 0, tempsize = 0 parsize = 0, ar
      +                          gsize = 0, vargsize = 0
  1042  000584  0EF8               	movlw	248
  1043  000586  26E1               	addwf	fsr1l,f,c
  1044  000588  0EFF               	movlw	255
  1045  00058A  22E2               	addwfc	fsr1h,f,c
  1046  00058C  0012               	return		;funcret
  1047  00058E                     __end_of_check_wash:
  1048                           	callstack 0
  1049                           
  1050 ;; *************** function _run_wash *****************
  1051 ;; Defined at:
  1052 ;;		line 121 in file "tasks.c"
  1053 ;; Parameters:    Size  Location     Type
  1054 ;;		None
  1055 ;; Auto vars:     Size  Location     Type
  1056 ;;		None
  1057 ;; Return value:  Size  Location     Type
  1058 ;;                  1  [STACK] void 
  1059 ;; Registers used:
  1060 ;;		wreg, status,2, status,0
  1061 ;; Tracked objects:
  1062 ;;		On entry : 3F/0
  1063 ;;		On exit  : 0/0
  1064 ;;		Unchanged: 0/0
  1065 ;; Data sizes:     COMRAM   BANK0   BANK1   BANK2   BANK3   BANK4   BANK5
  1066 ;;      Params:         0       0       0       0       0       0       0
  1067 ;;      Locals:         0       0       0       0       0       0       0
  1068 ;;      Temps:          0       0       0       0       0       0       0
  1069 ;;      Totals:         0       0       0       0       0       0       0
  1070 ;;Total ram usage:        0 bytes
  1071 ;; Hardware stack levels used:    1
  1072 ;; Hardware stack levels required when called:    4
  1073 ;; This function calls:
  1074 ;;		Nothing
  1075 ;; This function is called by:
  1076 ;;		_check_wash
  1077 ;; This function uses a reentrant model
  1078 ;;
  1079                           
  1080                           	psect	text8
  1081  000956                     __ptext8:
  1082                           	callstack 0
  1083  000956                     _run_wash:
  1084                           	callstack 23
  1085  000956                     
  1086                           ;tasks.c: 123:    if (w_machine.counter < 10000) {
  1087  000956  0E10               	movlw	16
  1088  000958  5C35               	subwf	_w_machine^0,w,c
  1089  00095A  0E27               	movlw	39
  1090  00095C  5836               	subwfb	(_w_machine+1)^0,w,c
  1091  00095E  B0D8               	btfsc	status,0,c
  1092  000960  EFB4  F004         	goto	u9_21
  1093  000964  EFB6  F004         	goto	u9_20
  1094  000968                     u9_21:
  1095  000968  EFBB  F004         	goto	l1164
  1096  00096C                     u9_20:
  1097  00096C                     
  1098                           ;tasks.c: 124:       PORTCbits.RC4 = 1;
  1099  00096C  8882               	bsf	130,4,c	;volatile
  1100                           
  1101                           ;tasks.c: 125:       PORTCbits.RC5 = 1;
  1102  00096E  8A82               	bsf	130,5,c	;volatile
  1103                           
  1104                           ;tasks.c: 126:       PORTDbits.RD2 = 1;
  1105  000970  8483               	bsf	131,2,c	;volatile
  1106  000972                     
  1107                           ;tasks.c: 127:       w_machine.counter++;
  1108  000972  4A35               	infsnz	_w_machine^0,f,c
  1109  000974  2A36               	incf	(_w_machine+1)^0,f,c
  1110  000976                     l1164:
  1111                           
  1112                           ;tasks.c: 129:    if (w_machine.counter >= 10000 && f_clothes.clothes_washing.washing_cy
      +                          cles == 1)
  1113  000976  0E10               	movlw	16
  1114  000978  5C35               	subwf	_w_machine^0,w,c
  1115  00097A  0E27               	movlw	39
  1116  00097C  5836               	subwfb	(_w_machine+1)^0,w,c
  1117  00097E  A0D8               	btfss	status,0,c
  1118  000980  EFC4  F004         	goto	u10_21
  1119  000984  EFC6  F004         	goto	u10_20
  1120  000988                     u10_21:
  1121  000988  EFDF  F004         	goto	l1176
  1122  00098C                     u10_20:
  1123  00098C  0100               	movlb	0	; () banked
  1124  00098E  05B4               	decf	(_f_clothes+52)& (0+255),w,b
  1125  000990  11B5               	iorwf	(_f_clothes+53)& (0+255),w,b
  1126  000992  A4D8               	btfss	status,2,c
  1127  000994  EFCE  F004         	goto	u11_21
  1128  000998  EFD0  F004         	goto	u11_20
  1129  00099C                     u11_21:
  1130  00099C  EFDF  F004         	goto	l1176
  1131  0009A0                     u11_20:
  1132  0009A0                     
  1133                           ; BSR set to: 0
  1134                           ;tasks.c: 131:    {;tasks.c: 132:       PORTCbits.RC4 = 0;
  1135  0009A0  9882               	bcf	130,4,c	;volatile
  1136                           
  1137                           ;tasks.c: 133:       PORTCbits.RC5 = 0;
  1138  0009A2  9A82               	bcf	130,5,c	;volatile
  1139                           
  1140                           ;tasks.c: 135:       PORTDbits.RD2 = 0;
  1141  0009A4  9483               	bcf	131,2,c	;volatile
  1142  0009A6                     
  1143                           ; BSR set to: 0
  1144                           ;tasks.c: 136:       f_clothes.clothes_washing.state = 1;
  1145  0009A6  0E00               	movlw	0
  1146  0009A8  6FB7               	movwf	(_f_clothes+55)& (0+255),b
  1147  0009AA  0E01               	movlw	1
  1148  0009AC  6FB6               	movwf	(_f_clothes+54)& (0+255),b
  1149  0009AE                     
  1150                           ; BSR set to: 0
  1151                           ;tasks.c: 137:       w_machine.counter = 0;
  1152  0009AE  6A35               	clrf	_w_machine^0,c
  1153  0009B0  6A36               	clrf	(_w_machine+1)^0,c
  1154                           
  1155                           ;tasks.c: 138:       w_machine.flag = 1;
  1156  0009B2  0E00               	movlw	0
  1157  0009B4  6E38               	movwf	(_w_machine+3)^0,c
  1158  0009B6  0E01               	movlw	1
  1159  0009B8  6E37               	movwf	(_w_machine+2)^0,c
  1160  0009BA                     
  1161                           ; BSR set to: 0
  1162                           ;tasks.c: 139:       i_machine.flag = 0;
  1163  0009BA  6A33               	clrf	(_i_machine+2)^0,c
  1164  0009BC  6A34               	clrf	(_i_machine+3)^0,c
  1165  0009BE                     l1176:
  1166                           
  1167                           ;tasks.c: 141:    if (w_machine.counter >= 10000 && f_clothes.clothes_washing.washing_cy
      +                          cles > 1) {
  1168  0009BE  0E10               	movlw	16
  1169  0009C0  5C35               	subwf	_w_machine^0,w,c
  1170  0009C2  0E27               	movlw	39
  1171  0009C4  5836               	subwfb	(_w_machine+1)^0,w,c
  1172  0009C6  A0D8               	btfss	status,0,c
  1173  0009C8  EFE8  F004         	goto	u12_21
  1174  0009CC  EFEA  F004         	goto	u12_20
  1175  0009D0                     u12_21:
  1176  0009D0  EFFC  F004         	goto	l168
  1177  0009D4                     u12_20:
  1178  0009D4  0100               	movlb	0	; () banked
  1179  0009D6  51B5               	movf	(_f_clothes+53)& (0+255),w,b
  1180  0009D8  E109               	bnz	u13_20
  1181  0009DA  0E02               	movlw	2
  1182  0009DC  5DB4               	subwf	(_f_clothes+52)& (0+255),w,b
  1183  0009DE  A0D8               	btfss	status,0,c
  1184  0009E0  EFF4  F004         	goto	u13_21
  1185  0009E4  EFF6  F004         	goto	u13_20
  1186  0009E8                     u13_21:
  1187  0009E8  EFFC  F004         	goto	l168
  1188  0009EC                     u13_20:
  1189  0009EC                     
  1190                           ; BSR set to: 0
  1191                           ;tasks.c: 142:       PORTDbits.RD2 = 0;
  1192  0009EC  9483               	bcf	131,2,c	;volatile
  1193  0009EE                     
  1194                           ; BSR set to: 0
  1195                           ;tasks.c: 143:       f_clothes.clothes_washing.washing_cycles--;
  1196  0009EE  07B4               	decf	(_f_clothes+52)& (0+255),f,b
  1197  0009F0  A0D8               	btfss	status,0,c
  1198  0009F2  07B5               	decf	(_f_clothes+53)& (0+255),f,b
  1199  0009F4                     
  1200                           ; BSR set to: 0
  1201                           ;tasks.c: 144:       w_machine.counter = 0;
  1202  0009F4  6A35               	clrf	_w_machine^0,c
  1203  0009F6  6A36               	clrf	(_w_machine+1)^0,c
  1204  0009F8                     l168:
  1205                           
  1206                           ; _run_wash: autosize = 0, savesize = 0, parsavesize = 0, tempsize = 0 parsize = 0, args
      +                          ize = 0, vargsize = 0
  1207  0009F8  0012               	return		;funcret
  1208  0009FA                     __end_of_run_wash:
  1209                           	callstack 0
  1210                           
  1211 ;; *************** function _check_ironing *****************
  1212 ;; Defined at:
  1213 ;;		line 148 in file "tasks.c"
  1214 ;; Parameters:    Size  Location     Type
  1215 ;;		None
  1216 ;; Auto vars:     Size  Location     Type
  1217 ;;		None
  1218 ;; Return value:  Size  Location     Type
  1219 ;;                  1  [STACK] void 
  1220 ;; Registers used:
  1221 ;;		wreg, fsr0l, fsr0h, fsr1l, fsr1h, fsr2l, fsr2h, status,2, status,0, btemp+8, btemp+9, btemp+10, btemp+11, prodl, pro
      +dh
  1222 ;; Tracked objects:
  1223 ;;		On entry : 0/0
  1224 ;;		On exit  : 0/0
  1225 ;;		Unchanged: 0/0
  1226 ;; Data sizes:     COMRAM   BANK0   BANK1   BANK2   BANK3   BANK4   BANK5
  1227 ;;      Params:         0       0       0       0       0       0       0
  1228 ;;      Locals:         0       0       0       0       0       0       0
  1229 ;;      Temps:          0       0       0       0       0       0       0
  1230 ;;      Totals:         0       0       0       0       0       0       0
  1231 ;;Total ram usage:        0 bytes
  1232 ;; Hardware stack levels used:    1
  1233 ;; Hardware stack levels required when called:    5
  1234 ;; This function calls:
  1235 ;;		_run_ironing
  1236 ;; This function is called by:
  1237 ;;		_main
  1238 ;; This function uses a reentrant model
  1239 ;;
  1240                           
  1241                           	psect	text9
  1242  0008AC                     __ptext9:
  1243                           	callstack 0
  1244  0008AC                     _check_ironing:
  1245                           	callstack 23
  1246  0008AC                     l171:
  1247  0008AC                     
  1248                           ;tasks.c: 150:       if (w_machine.flag == 1 && f_clothes.clothes_washing.state == 1 && 
      +                          i_machine.flag == 0) {
  1249  0008AC  0437               	decf	(_w_machine+2)^0,w,c
  1250  0008AE  1038               	iorwf	(_w_machine+3)^0,w,c
  1251  0008B0  A4D8               	btfss	status,2,c
  1252  0008B2  EF5D  F004         	goto	u29_21
  1253  0008B6  EF5F  F004         	goto	u29_20
  1254  0008BA                     u29_21:
  1255  0008BA  EF8B  F004         	goto	l1286
  1256  0008BE                     u29_20:
  1257  0008BE  0100               	movlb	0	; () banked
  1258  0008C0  05B6               	decf	(_f_clothes+54)& (0+255),w,b
  1259  0008C2  11B7               	iorwf	(_f_clothes+55)& (0+255),w,b
  1260  0008C4  A4D8               	btfss	status,2,c
  1261  0008C6  EF67  F004         	goto	u30_21
  1262  0008CA  EF69  F004         	goto	u30_20
  1263  0008CE                     u30_21:
  1264  0008CE  EF8B  F004         	goto	l1286
  1265  0008D2                     u30_20:
  1266  0008D2                     
  1267                           ; BSR set to: 0
  1268  0008D2  5033               	movf	(_i_machine+2)^0,w,c
  1269  0008D4  1034               	iorwf	(_i_machine+3)^0,w,c
  1270  0008D6  A4D8               	btfss	status,2,c
  1271  0008D8  EF70  F004         	goto	u31_21
  1272  0008DC  EF72  F004         	goto	u31_20
  1273  0008E0                     u31_21:
  1274  0008E0  EF8B  F004         	goto	l1286
  1275  0008E4                     u31_20:
  1276  0008E4                     
  1277                           ; BSR set to: 0
  1278                           ;tasks.c: 153:          f_clothes.clothes_ironing = f_clothes.clothes_washing;
  1279  0008E4  EE20  F0B2         	lfsr	2,_f_clothes+50
  1280  0008E8  EE00  F0B8         	lfsr	0,_f_clothes+56
  1281  0008EC  0E05               	movlw	5
  1282  0008EE                     u32_21:
  1283  0008EE  CFDB FFEB          	movff	plusw2,plusw0
  1284  0008F2  06E8               	decf	wreg,f,c
  1285  0008F4  E2FC               	bc	u32_21
  1286  0008F6                     
  1287                           ; BSR set to: 0
  1288                           ;tasks.c: 154:          w_machine.flag = 0;
  1289  0008F6  6A37               	clrf	(_w_machine+2)^0,c
  1290  0008F8  6A38               	clrf	(_w_machine+3)^0,c
  1291  0008FA                     
  1292                           ; BSR set to: 0
  1293                           ;tasks.c: 155:          i_machine.flag = 1;
  1294  0008FA  0E00               	movlw	0
  1295  0008FC  6E34               	movwf	(_i_machine+3)^0,c
  1296  0008FE  0E01               	movlw	1
  1297  000900  6E33               	movwf	(_i_machine+2)^0,c
  1298  000902                     
  1299                           ; BSR set to: 0
  1300                           ;tasks.c: 156:          run_ironing(f_clothes.clothes_ironing);
  1301  000902  EE20  F0B8         	lfsr	2,_f_clothes+56
  1302  000906  0E06               	movlw	6
  1303  000908                     u33_21:
  1304  000908  CFDE FFE6          	movff	postinc2,postinc1
  1305  00090C  2CE8               	decfsz	wreg,w,c
  1306  00090E  EF84  F004         	goto	u33_21
  1307  000912  EC96  F005         	call	_run_ironing	;wreg free
  1308  000916                     l1286:
  1309                           
  1310                           ;tasks.c: 159:       if (f_clothes.clothes_washing.state == 1 && i_machine.flag == 1) {
  1311  000916  0100               	movlb	0	; () banked
  1312  000918  05B6               	decf	(_f_clothes+54)& (0+255),w,b
  1313  00091A  11B7               	iorwf	(_f_clothes+55)& (0+255),w,b
  1314  00091C  A4D8               	btfss	status,2,c
  1315  00091E  EF93  F004         	goto	u34_21
  1316  000922  EF95  F004         	goto	u34_20
  1317  000926                     u34_21:
  1318  000926  EF56  F004         	goto	l171
  1319  00092A                     u34_20:
  1320  00092A                     
  1321                           ; BSR set to: 0
  1322  00092A  0433               	decf	(_i_machine+2)^0,w,c
  1323  00092C  1034               	iorwf	(_i_machine+3)^0,w,c
  1324  00092E  A4D8               	btfss	status,2,c
  1325  000930  EF9C  F004         	goto	u35_21
  1326  000934  EF9E  F004         	goto	u35_20
  1327  000938                     u35_21:
  1328  000938  EF56  F004         	goto	l171
  1329  00093C                     u35_20:
  1330  00093C                     
  1331                           ; BSR set to: 0
  1332                           ;tasks.c: 162:          run_ironing(f_clothes.clothes_ironing);
  1333  00093C  EE20  F0B8         	lfsr	2,_f_clothes+56
  1334  000940  0E06               	movlw	6
  1335  000942                     u36_21:
  1336  000942  CFDE FFE6          	movff	postinc2,postinc1
  1337  000946  2CE8               	decfsz	wreg,w,c
  1338  000948  EFA1  F004         	goto	u36_21
  1339  00094C  EC96  F005         	call	_run_ironing	;wreg free
  1340  000950  EF56  F004         	goto	l171
  1341                           
  1342                           ; _check_ironing: autosize = 0, savesize = 0, parsavesize = 0, tempsize = 0 parsize = 0,
      +                           argsize = 0, vargsize = 0
  1343  000954  0012               	return		;funcret
  1344  000956                     __end_of_check_ironing:
  1345                           	callstack 0
  1346                           
  1347 ;; *************** function _run_ironing *****************
  1348 ;; Defined at:
  1349 ;;		line 167 in file "tasks.c"
  1350 ;; Parameters:    Size  Location     Type
  1351 ;;  clothes_iron    6  [STACK] struct clothes_control
  1352 ;; Auto vars:     Size  Location     Type
  1353 ;;		None
  1354 ;; Return value:  Size  Location     Type
  1355 ;;                  1  [STACK] void 
  1356 ;; Registers used:
  1357 ;;		wreg, fsr0l, fsr0h, fsr1l, fsr1h, fsr2l, fsr2h, status,2, status,0, btemp+8, btemp+9, btemp+10, btemp+11, prodl, pro
      +dh
  1358 ;; Tracked objects:
  1359 ;;		On entry : 3F/0
  1360 ;;		On exit  : 0/0
  1361 ;;		Unchanged: 0/0
  1362 ;; Data sizes:     COMRAM   BANK0   BANK1   BANK2   BANK3   BANK4   BANK5
  1363 ;;      Params:         0       0       0       0       0       0       0
  1364 ;;      Locals:         0       0       0       0       0       0       0
  1365 ;;      Temps:          0       0       0       0       0       0       0
  1366 ;;      Totals:         0       0       0       0       0       0       0
  1367 ;;Total ram usage:        0 bytes
  1368 ;; Hardware stack levels used:    1
  1369 ;; Hardware stack levels required when called:    4
  1370 ;; This function calls:
  1371 ;;		Nothing
  1372 ;; This function is called by:
  1373 ;;		_check_ironing
  1374 ;; This function uses a reentrant model
  1375 ;;
  1376                           
  1377                           	psect	text10
  1378  000B2C                     __ptext10:
  1379                           	callstack 0
  1380  000B2C                     _run_ironing:
  1381                           	callstack 23
  1382  000B2C                     
  1383                           ;tasks.c: 168:    if (i_machine.counter < 10000) {
  1384  000B2C  0E10               	movlw	16
  1385  000B2E  5C31               	subwf	_i_machine^0,w,c
  1386  000B30  0E27               	movlw	39
  1387  000B32  5832               	subwfb	(_i_machine+1)^0,w,c
  1388  000B34  B0D8               	btfsc	status,0,c
  1389  000B36  EF9F  F005         	goto	u14_21
  1390  000B3A  EFA1  F005         	goto	u14_20
  1391  000B3E                     u14_21:
  1392  000B3E  EFA4  F005         	goto	l1192
  1393  000B42                     u14_20:
  1394  000B42                     
  1395                           ;tasks.c: 169:       PORTDbits.RD3 = 1;
  1396  000B42  8683               	bsf	131,3,c	;volatile
  1397  000B44                     
  1398                           ;tasks.c: 170:       i_machine.counter++;
  1399  000B44  4A31               	infsnz	_i_machine^0,f,c
  1400  000B46  2A32               	incf	(_i_machine+1)^0,f,c
  1401  000B48                     l1192:
  1402                           
  1403                           ;tasks.c: 173:    if (i_machine.counter >= 10000) {
  1404  000B48  0E10               	movlw	16
  1405  000B4A  5C31               	subwf	_i_machine^0,w,c
  1406  000B4C  0E27               	movlw	39
  1407  000B4E  5832               	subwfb	(_i_machine+1)^0,w,c
  1408  000B50  A0D8               	btfss	status,0,c
  1409  000B52  EFAD  F005         	goto	u15_21
  1410  000B56  EFAF  F005         	goto	u15_20
  1411  000B5A                     u15_21:
  1412  000B5A  EFDB  F005         	goto	l181
  1413  000B5E                     u15_20:
  1414  000B5E                     
  1415                           ;tasks.c: 174:       PORTDbits.RD3 = 0;
  1416  000B5E  9683               	bcf	131,3,c	;volatile
  1417                           
  1418                           ;tasks.c: 175:       i_machine.flag = 0;
  1419  000B60  6A33               	clrf	(_i_machine+2)^0,c
  1420  000B62  6A34               	clrf	(_i_machine+3)^0,c
  1421                           
  1422                           ;tasks.c: 176:       i_machine.counter = 0;
  1423  000B64  6A31               	clrf	_i_machine^0,c
  1424  000B66  6A32               	clrf	(_i_machine+1)^0,c
  1425  000B68                     
  1426                           ;tasks.c: 177:       f_clothes.clothes_washing.state = 2;
  1427  000B68  0E00               	movlw	0
  1428  000B6A  0100               	movlb	0	; () banked
  1429  000B6C  6FB7               	movwf	(_f_clothes+55)& (0+255),b
  1430  000B6E  0E02               	movlw	2
  1431  000B70  6FB6               	movwf	(_f_clothes+54)& (0+255),b
  1432  000B72                     
  1433                           ; BSR set to: 0
  1434                           ;tasks.c: 178:       f_clothes.clothes_finished[f_clothes.clothes_finished_size] = cloth
      +                          es_ironing;
  1435                           ;stkvar	_clothes_ironing @ sp[(0)+-6]
  1436  000B72  0EFA               	movlw	250
  1437  000B74  24E1               	addwf	fsr1l,w,c
  1438  000B76  6ED9               	movwf	fsr2l,c
  1439  000B78  0EFF               	movlw	255
  1440  000B7A  20E2               	addwfc	fsr1h,w,c
  1441  000B7C  6EDA               	movwf	fsr2h,c
  1442  000B7E  EE00  F0EE         	lfsr	0,_f_clothes+110
  1443  000B82  CFEE F00B          	movff	postinc0,btemp+10
  1444  000B86  CFED F00C          	movff	postdec0,btemp+11
  1445  000B8A  0E06               	movlw	6
  1446  000B8C  020B               	mulwf	(btemp+10)^0,c
  1447  000B8E  CFF3 F009          	movff	prodl,btemp+8
  1448  000B92  CFF4 F00A          	movff	prodh,btemp+9
  1449  000B96  020C               	mulwf	(btemp+11)^0,c
  1450  000B98  50F3               	movf	prodl,w,c
  1451  000B9A  260A               	addwf	(btemp+9)^0,f,c
  1452  000B9C  0EBE               	movlw	low (_f_clothes+62)
  1453  000B9E  2409               	addwf	(btemp+8)^0,w,c
  1454  000BA0  6EE9               	movwf	fsr0l,c
  1455  000BA2  0E00               	movlw	high (_f_clothes+62)
  1456  000BA4  200A               	addwfc	(btemp+9)^0,w,c
  1457  000BA6  6EEA               	movwf	fsr0h,c
  1458  000BA8  0E05               	movlw	5
  1459  000BAA                     u16_21:
  1460  000BAA  CFDB FFEB          	movff	plusw2,plusw0
  1461  000BAE  06E8               	decf	wreg,f,c
  1462  000BB0  E2FC               	bc	u16_21
  1463  000BB2                     
  1464                           ; BSR set to: 0
  1465                           ;tasks.c: 179:       f_clothes.clothes_finished_size++;
  1466  000BB2  4BEE               	infsnz	(_f_clothes+110)& (0+255),f,b
  1467  000BB4  2BEF               	incf	(_f_clothes+111)& (0+255),f,b
  1468  000BB6                     l181:
  1469                           
  1470                           ; _run_ironing: autosize = 0, savesize = 0, parsavesize = 0, tempsize = 0 parsize = 6, a
      +                          rgsize = 6, vargsize = 0
  1471  000BB6  0EFA               	movlw	250
  1472  000BB8  26E1               	addwf	fsr1l,f,c
  1473  000BBA  0EFF               	movlw	255
  1474  000BBC  22E2               	addwfc	fsr1h,f,c
  1475  000BBE  0012               	return		;funcret
  1476  000BC0                     __end_of_run_ironing:
  1477                           	callstack 0
  1478                           
  1479 ;; *************** function _IRQ_Timer0 *****************
  1480 ;; Defined at:
  1481 ;;		line 44 in file "timer.c"
  1482 ;; Parameters:    Size  Location     Type
  1483 ;;		None
  1484 ;; Auto vars:     Size  Location     Type
  1485 ;;		None
  1486 ;; Return value:  Size  Location     Type
  1487 ;;                  1    wreg      void 
  1488 ;; Registers used:
  1489 ;;		wreg, fsr0l, fsr0h, fsr1l, fsr1h, fsr2l, fsr2h, status,2, status,0, btemp, btemp+1, btemp+8, btemp+9, btemp+10, btem
      +p+11, prodl, prodh
  1490 ;; Tracked objects:
  1491 ;;		On entry : 0/0
  1492 ;;		On exit  : 0/0
  1493 ;;		Unchanged: 0/0
  1494 ;; Data sizes:     COMRAM   BANK0   BANK1   BANK2   BANK3   BANK4   BANK5
  1495 ;;      Params:         0       0       0       0       0       0       0
  1496 ;;      Locals:         0       0       0       0       0       0       0
  1497 ;;      Temps:         16       0       0       0       0       0       0
  1498 ;;      Totals:        16       0       0       0       0       0       0
  1499 ;;Total ram usage:       16 bytes
  1500 ;; Hardware stack levels used:    1
  1501 ;; Hardware stack levels required when called:    3
  1502 ;; This function calls:
  1503 ;;		___wmul
  1504 ;;		_color_clothes
  1505 ;;		_controle_delay
  1506 ;;		_scheduler
  1507 ;;		_white_clothes
  1508 ;; This function is called by:
  1509 ;;		Interrupt level 2
  1510 ;; This function uses a non-reentrant model
  1511 ;;
  1512                           
  1513                           	psect	intcode
  1514  000008                     __pintcode:
  1515                           	callstack 0
  1516  000008                     _IRQ_Timer0:
  1517                           	callstack 23
  1518                           
  1519                           ;incstack = 0
  1520  000008  ED0A  F000         	call	int_func,f	;refresh shadow registers
  1521                           
  1522                           	psect	intcode_body
  1523  000014                     __pintcode_body:
  1524                           	callstack 23
  1525  000014                     int_func:
  1526                           	callstack 23
  1527  000014  0006               	pop		; remove dummy address from shadow register refresh
  1528  000016  CFE9 F023          	movff	fsr0l,??_IRQ_Timer0+2
  1529  00001A  CFEA F024          	movff	fsr0h,??_IRQ_Timer0+3
  1530  00001E  CFE1 F025          	movff	fsr1l,??_IRQ_Timer0+4
  1531  000022  CFE2 F026          	movff	fsr1h,??_IRQ_Timer0+5
  1532  000026  CFD9 F027          	movff	fsr2l,??_IRQ_Timer0+6
  1533  00002A  CFDA F028          	movff	fsr2h,??_IRQ_Timer0+7
  1534  00002E  CFF3 F029          	movff	prodl,??_IRQ_Timer0+8
  1535  000032  CFF4 F02A          	movff	prodh,??_IRQ_Timer0+9
  1536  000036  C001  F02B         	movff	btemp,??_IRQ_Timer0+10
  1537  00003A  C002  F02C         	movff	btemp+1,??_IRQ_Timer0+11
  1538  00003E  C009  F02D         	movff	btemp+8,??_IRQ_Timer0+12
  1539  000042  C00A  F02E         	movff	btemp+9,??_IRQ_Timer0+13
  1540  000046  C00B  F02F         	movff	btemp+10,??_IRQ_Timer0+14
  1541  00004A  C00C  F030         	movff	btemp+11,??_IRQ_Timer0+15
  1542  00004E  EE14  F09C         	lfsr	1,___inthi_sp
  1543  000052                     
  1544                           ;timer.c: 47:    INTCONbits.GIE = 0;
  1545  000052  9EF2               	bcf	242,7,c	;volatile
  1546                           
  1547                           ;timer.c: 49:    if (INTCONbits.TMR0IF)
  1548  000054  A4F2               	btfss	242,2,c	;volatile
  1549  000056  EF2F  F000         	goto	i2u37_41
  1550  00005A  EF31  F000         	goto	i2u37_40
  1551  00005E                     i2u37_41:
  1552  00005E  EFC7  F001         	goto	i2l255
  1553  000062                     i2u37_40:
  1554  000062                     
  1555                           ;timer.c: 50:    {;timer.c: 51:       INTCONbits.TMR0IF = 0;
  1556  000062  94F2               	bcf	242,2,c	;volatile
  1557                           
  1558                           ;timer.c: 52:       TMR0L = 0;
  1559  000064  6AD6               	clrf	214,c	;volatile
  1560  000066                     
  1561                           ;timer.c: 56:       quantum--;
  1562  000066  063B               	decf	_quantum^0,f,c
  1563  000068  A0D8               	btfss	status,0,c
  1564  00006A  063C               	decf	(_quantum+1)^0,f,c
  1565  00006C                     
  1566                           ;timer.c: 57:       if (quantum == 0)
  1567  00006C  503B               	movf	_quantum^0,w,c
  1568  00006E  103C               	iorwf	(_quantum+1)^0,w,c
  1569  000070  A4D8               	btfss	status,2,c
  1570  000072  EF3D  F000         	goto	i2u38_41
  1571  000076  EF3F  F000         	goto	i2u38_40
  1572  00007A                     i2u38_41:
  1573  00007A  EFC5  F001         	goto	i2l1330
  1574  00007E                     i2u38_40:
  1575  00007E  0E2E               	movlw	46
  1576  000080  6EE6               	movwf	postinc1,c
  1577  000082  0E00               	movlw	0
  1578  000084  6EE6               	movwf	postinc1,c
  1579  000086  C1E8  FFE6         	movff	_f_aptos+232,postinc1
  1580  00008A  C1E9  FFE6         	movff	_f_aptos+233,postinc1
  1581  00008E  EC4B  F005         	call	___wmul	;wreg free
  1582  000092  0E27               	movlw	low (_f_aptos+39)
  1583  000094  2401               	addwf	btemp^0,w,c
  1584  000096  6ED9               	movwf	fsr2l,c
  1585  000098  0E01               	movlw	high (_f_aptos+39)
  1586  00009A  2002               	addwfc	(btemp+1)^0,w,c
  1587  00009C  6EDA               	movwf	fsr2h,c
  1588  00009E  50DE               	movf	postinc2,w,c
  1589  0000A0  10DE               	iorwf	postinc2,w,c
  1590  0000A2  B4D8               	btfsc	status,2,c
  1591  0000A4  EF56  F000         	goto	i2u39_41
  1592  0000A8  EF58  F000         	goto	i2u39_40
  1593  0000AC                     i2u39_41:
  1594  0000AC  EFE1  F000         	goto	i2l1310
  1595  0000B0                     i2u39_40:
  1596  0000B0  6A39               	clrf	_index^0,c
  1597  0000B2  6A3A               	clrf	(_index+1)^0,c
  1598  0000B4  0E2E               	movlw	46
  1599  0000B6  6EE6               	movwf	postinc1,c
  1600  0000B8  0E00               	movlw	0
  1601  0000BA  6EE6               	movwf	postinc1,c
  1602  0000BC  C1E8  FFE6         	movff	_f_aptos+232,postinc1
  1603  0000C0  C1E9  FFE6         	movff	_f_aptos+233,postinc1
  1604  0000C4  EC4B  F005         	call	___wmul	;wreg free
  1605  0000C8  0E02               	movlw	low (_f_aptos+2)
  1606  0000CA  2401               	addwf	btemp^0,w,c
  1607  0000CC  6ED9               	movwf	fsr2l,c
  1608  0000CE  0E01               	movlw	high (_f_aptos+2)
  1609  0000D0  2002               	addwfc	(btemp+1)^0,w,c
  1610  0000D2  6EDA               	movwf	fsr2h,c
  1611  0000D4  0E00               	movlw	0
  1612  0000D6  6EDF               	movwf	indf2,c
  1613  0000D8  0E2E               	movlw	46
  1614  0000DA  6EE6               	movwf	postinc1,c
  1615  0000DC  0E00               	movlw	0
  1616  0000DE  6EE6               	movwf	postinc1,c
  1617  0000E0  C1E8  FFE6         	movff	_f_aptos+232,postinc1
  1618  0000E4  C1E9  FFE6         	movff	_f_aptos+233,postinc1
  1619  0000E8  EC4B  F005         	call	___wmul	;wreg free
  1620  0000EC  0E2A               	movlw	low (_f_aptos+42)
  1621  0000EE  2401               	addwf	btemp^0,w,c
  1622  0000F0  6ED9               	movwf	fsr2l,c
  1623  0000F2  0E01               	movlw	high (_f_aptos+42)
  1624  0000F4  2002               	addwfc	(btemp+1)^0,w,c
  1625  0000F6  6EDA               	movwf	fsr2h,c
  1626  0000F8  CFE8 FFDF          	movff	wreg,indf2	;volatile
  1627  0000FC  0E2E               	movlw	46
  1628  0000FE  6EE6               	movwf	postinc1,c
  1629  000100  0E00               	movlw	0
  1630  000102  6EE6               	movwf	postinc1,c
  1631  000104  C1E8  FFE6         	movff	_f_aptos+232,postinc1
  1632  000108  C1E9  FFE6         	movff	_f_aptos+233,postinc1
  1633  00010C  EC4B  F005         	call	___wmul	;wreg free
  1634  000110  0E29               	movlw	low (_f_aptos+41)
  1635  000112  2401               	addwf	btemp^0,w,c
  1636  000114  6ED9               	movwf	fsr2l,c
  1637  000116  0E01               	movlw	high (_f_aptos+41)
  1638  000118  2002               	addwfc	(btemp+1)^0,w,c
  1639  00011A  6EDA               	movwf	fsr2h,c
  1640  00011C  CFE0 FFDF          	movff	bsr,indf2	;volatile
  1641  000120  0E2E               	movlw	46
  1642  000122  6EE6               	movwf	postinc1,c
  1643  000124  0E00               	movlw	0
  1644  000126  6EE6               	movwf	postinc1,c
  1645  000128  C1E8  FFE6         	movff	_f_aptos+232,postinc1
  1646  00012C  C1E9  FFE6         	movff	_f_aptos+233,postinc1
  1647  000130  EC4B  F005         	call	___wmul	;wreg free
  1648  000134  0E2B               	movlw	low (_f_aptos+43)
  1649  000136  2401               	addwf	btemp^0,w,c
  1650  000138  6ED9               	movwf	fsr2l,c
  1651  00013A  0E01               	movlw	high (_f_aptos+43)
  1652  00013C  2002               	addwfc	(btemp+1)^0,w,c
  1653  00013E  6EDA               	movwf	fsr2h,c
  1654  000140  CFD8 FFDF          	movff	status,indf2	;volatile
  1655  000144  0E2E               	movlw	46
  1656  000146  6EE6               	movwf	postinc1,c
  1657  000148  0E00               	movlw	0
  1658  00014A  6EE6               	movwf	postinc1,c
  1659  00014C  C1E8  FFE6         	movff	_f_aptos+232,postinc1
  1660  000150  C1E9  FFE6         	movff	_f_aptos+233,postinc1
  1661  000154  EC4B  F005         	call	___wmul	;wreg free
  1662  000158  0E27               	movlw	low (_f_aptos+39)
  1663  00015A  2401               	addwf	btemp^0,w,c
  1664  00015C  6ED9               	movwf	fsr2l,c
  1665  00015E  0E01               	movlw	high (_f_aptos+39)
  1666  000160  2002               	addwfc	(btemp+1)^0,w,c
  1667  000162  6EDA               	movwf	fsr2h,c
  1668  000164  0E00               	movlw	0
  1669  000166  6EDE               	movwf	postinc2,c
  1670  000168  0E00               	movlw	0
  1671  00016A  6EDD               	movwf	postdec2,c
  1672  00016C                     i2l259:
  1673  00016C  0E2E               	movlw	46
  1674  00016E  6EE6               	movwf	postinc1,c
  1675  000170  0E00               	movlw	0
  1676  000172  6EE6               	movwf	postinc1,c
  1677  000174  C1E8  FFE6         	movff	_f_aptos+232,postinc1
  1678  000178  C1E9  FFE6         	movff	_f_aptos+233,postinc1
  1679  00017C  EC4B  F005         	call	___wmul	;wreg free
  1680  000180  0E00               	movlw	low _f_aptos
  1681  000182  6E21               	movwf	??_IRQ_Timer0^0,c
  1682  000184  0E01               	movlw	high _f_aptos
  1683  000186  6E22               	movwf	(??_IRQ_Timer0+1)^0,c
  1684  000188  0E07               	movlw	7
  1685  00018A  2621               	addwf	??_IRQ_Timer0^0,f,c
  1686  00018C  0E00               	movlw	0
  1687  00018E  2222               	addwfc	(??_IRQ_Timer0+1)^0,f,c
  1688  000190  5001               	movf	btemp^0,w,c
  1689  000192  2621               	addwf	??_IRQ_Timer0^0,f,c
  1690  000194  5002               	movf	(btemp+1)^0,w,c
  1691  000196  2222               	addwfc	(??_IRQ_Timer0+1)^0,f,c
  1692  000198  5039               	movf	_index^0,w,c
  1693  00019A  2421               	addwf	??_IRQ_Timer0^0,w,c
  1694  00019C  6ED9               	movwf	fsr2l,c
  1695  00019E  503A               	movf	(_index+1)^0,w,c
  1696  0001A0  2022               	addwfc	(??_IRQ_Timer0+1)^0,w,c
  1697  0001A2  6EDA               	movwf	fsr2h,c
  1698  0001A4  CFFD FFDF          	movff	tosl,indf2	;volatile
  1699  0001A8  4A39               	infsnz	_index^0,f,c
  1700  0001AA  2A3A               	incf	(_index+1)^0,f,c
  1701  0001AC  0006               	pop		;# 
  1702  0001AE  50FC               	movf	252,w,c	;volatile
  1703  0001B0  A4D8               	btfss	status,2,c
  1704  0001B2  EFDD  F000         	goto	i2u40_41
  1705  0001B6  EFDF  F000         	goto	i2u40_40
  1706  0001BA                     i2u40_41:
  1707  0001BA  EFB6  F000         	goto	i2l259
  1708  0001BE                     i2u40_40:
  1709  0001BE  EFF3  F000         	goto	i2l1312
  1710  0001C2                     i2l1310:
  1711  0001C2  0E2E               	movlw	46
  1712  0001C4  6EE6               	movwf	postinc1,c
  1713  0001C6  0E00               	movlw	0
  1714  0001C8  6EE6               	movwf	postinc1,c
  1715  0001CA  C1E8  FFE6         	movff	_f_aptos+232,postinc1
  1716  0001CE  C1E9  FFE6         	movff	_f_aptos+233,postinc1
  1717  0001D2  EC4B  F005         	call	___wmul	;wreg free
  1718  0001D6  0E02               	movlw	low (_f_aptos+2)
  1719  0001D8  2401               	addwf	btemp^0,w,c
  1720  0001DA  6ED9               	movwf	fsr2l,c
  1721  0001DC  0E01               	movlw	high (_f_aptos+2)
  1722  0001DE  2002               	addwfc	(btemp+1)^0,w,c
  1723  0001E0  6EDA               	movwf	fsr2h,c
  1724  0001E2  0E00               	movlw	0
  1725  0001E4  6EDF               	movwf	indf2,c
  1726  0001E6                     i2l1312:
  1727  0001E6  ECEE  F006         	call	_scheduler	;wreg free
  1728  0001EA  C001  F1E8         	movff	btemp,_f_aptos+232
  1729  0001EE  C002  F1E9         	movff	btemp+1,_f_aptos+233
  1730  0001F2  0E2E               	movlw	46
  1731  0001F4  6EE6               	movwf	postinc1,c
  1732  0001F6  0E00               	movlw	0
  1733  0001F8  6EE6               	movwf	postinc1,c
  1734  0001FA  C1E8  FFE6         	movff	_f_aptos+232,postinc1
  1735  0001FE  C1E9  FFE6         	movff	_f_aptos+233,postinc1
  1736  000202  EC4B  F005         	call	___wmul	;wreg free
  1737  000206  0E27               	movlw	low (_f_aptos+39)
  1738  000208  2401               	addwf	btemp^0,w,c
  1739  00020A  6ED9               	movwf	fsr2l,c
  1740  00020C  0E01               	movlw	high (_f_aptos+39)
  1741  00020E  2002               	addwfc	(btemp+1)^0,w,c
  1742  000210  6EDA               	movwf	fsr2h,c
  1743  000212  50DE               	movf	postinc2,w,c
  1744  000214  10DE               	iorwf	postinc2,w,c
  1745  000216  A4D8               	btfss	status,2,c
  1746  000218  EF10  F001         	goto	i2u41_41
  1747  00021C  EF12  F001         	goto	i2u41_40
  1748  000220                     i2u41_41:
  1749  000220  EF2D  F001         	goto	i2l1318
  1750  000224                     i2u41_40:
  1751  000224  0E2E               	movlw	46
  1752  000226  6EE6               	movwf	postinc1,c
  1753  000228  0E00               	movlw	0
  1754  00022A  6EE6               	movwf	postinc1,c
  1755  00022C  C1E8  FFE6         	movff	_f_aptos+232,postinc1
  1756  000230  C1E9  FFE6         	movff	_f_aptos+233,postinc1
  1757  000234  EC4B  F005         	call	___wmul	;wreg free
  1758  000238  0E05               	movlw	low (_f_aptos+5)
  1759  00023A  2401               	addwf	btemp^0,w,c
  1760  00023C  6ED9               	movwf	fsr2l,c
  1761  00023E  0E01               	movlw	high (_f_aptos+5)
  1762  000240  2002               	addwfc	(btemp+1)^0,w,c
  1763  000242  6EDA               	movwf	fsr2h,c
  1764  000244  CFDE F021          	movff	postinc2,??_IRQ_Timer0
  1765  000248  CFDD F022          	movff	postdec2,??_IRQ_Timer0+1
  1766  00024C  C021  FFFD         	movff	??_IRQ_Timer0,tosl	;volatile
  1767  000250  C022  FFFE         	movff	??_IRQ_Timer0+1,tosh	;volatile
  1768  000254  6AFF               	clrf	255,c	;volatile
  1769  000256  EFC0  F001         	goto	i2l265
  1770  00025A                     i2l1318:
  1771  00025A  0E2E               	movlw	46
  1772  00025C  6EE6               	movwf	postinc1,c
  1773  00025E  0E00               	movlw	0
  1774  000260  6EE6               	movwf	postinc1,c
  1775  000262  C1E8  FFE6         	movff	_f_aptos+232,postinc1
  1776  000266  C1E9  FFE6         	movff	_f_aptos+233,postinc1
  1777  00026A  EC4B  F005         	call	___wmul	;wreg free
  1778  00026E  0E02               	movlw	low (_f_aptos+2)
  1779  000270  2401               	addwf	btemp^0,w,c
  1780  000272  6ED9               	movwf	fsr2l,c
  1781  000274  0E01               	movlw	high (_f_aptos+2)
  1782  000276  2002               	addwfc	(btemp+1)^0,w,c
  1783  000278  6EDA               	movwf	fsr2h,c
  1784  00027A  0E01               	movlw	1
  1785  00027C  6EDF               	movwf	indf2,c
  1786  00027E  0E2E               	movlw	46
  1787  000280  6EE6               	movwf	postinc1,c
  1788  000282  0E00               	movlw	0
  1789  000284  6EE6               	movwf	postinc1,c
  1790  000286  C1E8  FFE6         	movff	_f_aptos+232,postinc1
  1791  00028A  C1E9  FFE6         	movff	_f_aptos+233,postinc1
  1792  00028E  EC4B  F005         	call	___wmul	;wreg free
  1793  000292  0E2A               	movlw	low (_f_aptos+42)
  1794  000294  2401               	addwf	btemp^0,w,c
  1795  000296  6ED9               	movwf	fsr2l,c
  1796  000298  0E01               	movlw	high (_f_aptos+42)
  1797  00029A  2002               	addwfc	(btemp+1)^0,w,c
  1798  00029C  6EDA               	movwf	fsr2h,c
  1799  00029E  50DF               	movf	indf2,w,c
  1800  0002A0  6E21               	movwf	??_IRQ_Timer0^0,c
  1801  0002A2  5021               	movf	??_IRQ_Timer0^0,w,c
  1802  0002A4  0E2E               	movlw	46
  1803  0002A6  6EE6               	movwf	postinc1,c
  1804  0002A8  0E00               	movlw	0
  1805  0002AA  6EE6               	movwf	postinc1,c
  1806  0002AC  C1E8  FFE6         	movff	_f_aptos+232,postinc1
  1807  0002B0  C1E9  FFE6         	movff	_f_aptos+233,postinc1
  1808  0002B4  EC4B  F005         	call	___wmul	;wreg free
  1809  0002B8  0E29               	movlw	low (_f_aptos+41)
  1810  0002BA  2401               	addwf	btemp^0,w,c
  1811  0002BC  6ED9               	movwf	fsr2l,c
  1812  0002BE  0E01               	movlw	high (_f_aptos+41)
  1813  0002C0  2002               	addwfc	(btemp+1)^0,w,c
  1814  0002C2  6EDA               	movwf	fsr2h,c
  1815  0002C4  50DF               	movf	indf2,w,c
  1816  0002C6  6EE0               	movwf	224,c	;volatile
  1817  0002C8  0E2E               	movlw	46
  1818  0002CA  6EE6               	movwf	postinc1,c
  1819  0002CC  0E00               	movlw	0
  1820  0002CE  6EE6               	movwf	postinc1,c
  1821  0002D0  C1E8  FFE6         	movff	_f_aptos+232,postinc1
  1822  0002D4  C1E9  FFE6         	movff	_f_aptos+233,postinc1
  1823  0002D8  EC4B  F005         	call	___wmul	;wreg free
  1824  0002DC  0E2B               	movlw	low (_f_aptos+43)
  1825  0002DE  2401               	addwf	btemp^0,w,c
  1826  0002E0  6ED9               	movwf	fsr2l,c
  1827  0002E2  0E01               	movlw	high (_f_aptos+43)
  1828  0002E4  2002               	addwfc	(btemp+1)^0,w,c
  1829  0002E6  6EDA               	movwf	fsr2h,c
  1830  0002E8  50DF               	movf	indf2,w,c
  1831  0002EA  6ED8               	movwf	216,c	;volatile
  1832  0002EC  0E2E               	movlw	46
  1833  0002EE  6EE6               	movwf	postinc1,c
  1834  0002F0  0E00               	movlw	0
  1835  0002F2  6EE6               	movwf	postinc1,c
  1836  0002F4  C1E8  FFE6         	movff	_f_aptos+232,postinc1
  1837  0002F8  C1E9  FFE6         	movff	_f_aptos+233,postinc1
  1838  0002FC  EC4B  F005         	call	___wmul	;wreg free
  1839  000300  0E27               	movlw	low (_f_aptos+39)
  1840  000302  2401               	addwf	btemp^0,w,c
  1841  000304  6ED9               	movwf	fsr2l,c
  1842  000306  0E01               	movlw	high (_f_aptos+39)
  1843  000308  2002               	addwfc	(btemp+1)^0,w,c
  1844  00030A  6EDA               	movwf	fsr2h,c
  1845  00030C  CFDE F021          	movff	postinc2,??_IRQ_Timer0
  1846  000310  CFDD F022          	movff	postdec2,??_IRQ_Timer0+1
  1847  000314  0EFF               	movlw	255
  1848  000316  2421               	addwf	??_IRQ_Timer0^0,w,c
  1849  000318  6E39               	movwf	_index^0,c
  1850  00031A  0EFF               	movlw	255
  1851  00031C  2022               	addwfc	(??_IRQ_Timer0+1)^0,w,c
  1852  00031E  6E3A               	movwf	(_index+1)^0,c
  1853  000320  6AFC               	clrf	252,c	;volatile
  1854  000322  EFB7  F001         	goto	i2l1326
  1855  000326                     i2l267:
  1856  000326  0005               	push		;# 
  1857  000328  0E2E               	movlw	46
  1858  00032A  6EE6               	movwf	postinc1,c
  1859  00032C  0E00               	movlw	0
  1860  00032E  6EE6               	movwf	postinc1,c
  1861  000330  C1E8  FFE6         	movff	_f_aptos+232,postinc1
  1862  000334  C1E9  FFE6         	movff	_f_aptos+233,postinc1
  1863  000338  EC4B  F005         	call	___wmul	;wreg free
  1864  00033C  0E00               	movlw	low _f_aptos
  1865  00033E  6E21               	movwf	??_IRQ_Timer0^0,c
  1866  000340  0E01               	movlw	high _f_aptos
  1867  000342  6E22               	movwf	(??_IRQ_Timer0+1)^0,c
  1868  000344  0E07               	movlw	7
  1869  000346  2621               	addwf	??_IRQ_Timer0^0,f,c
  1870  000348  0E00               	movlw	0
  1871  00034A  2222               	addwfc	(??_IRQ_Timer0+1)^0,f,c
  1872  00034C  5001               	movf	btemp^0,w,c
  1873  00034E  2621               	addwf	??_IRQ_Timer0^0,f,c
  1874  000350  5002               	movf	(btemp+1)^0,w,c
  1875  000352  2222               	addwfc	(??_IRQ_Timer0+1)^0,f,c
  1876  000354  5039               	movf	_index^0,w,c
  1877  000356  2421               	addwf	??_IRQ_Timer0^0,w,c
  1878  000358  6ED9               	movwf	fsr2l,c
  1879  00035A  503A               	movf	(_index+1)^0,w,c
  1880  00035C  2022               	addwfc	(??_IRQ_Timer0+1)^0,w,c
  1881  00035E  6EDA               	movwf	fsr2h,c
  1882  000360  50DF               	movf	indf2,w,c
  1883  000362  6EFD               	movwf	253,c	;volatile
  1884  000364  6AFE               	clrf	254,c	;volatile
  1885  000366  6AFF               	clrf	255,c	;volatile
  1886  000368  0639               	decf	_index^0,f,c
  1887  00036A  A0D8               	btfss	status,0,c
  1888  00036C  063A               	decf	(_index+1)^0,f,c
  1889  00036E                     i2l1326:
  1890  00036E  5039               	movf	_index^0,w,c
  1891  000370  103A               	iorwf	(_index+1)^0,w,c
  1892  000372  A4D8               	btfss	status,2,c
  1893  000374  EFBE  F001         	goto	i2u42_41
  1894  000378  EFC0  F001         	goto	i2u42_40
  1895  00037C                     i2u42_41:
  1896  00037C  EF93  F001         	goto	i2l267
  1897  000380                     i2u42_40:
  1898  000380                     i2l265:
  1899  000380  8EF2               	bsf	242,7,c	;volatile
  1900  000382                     
  1901                           ;timer.c: 63:          quantum = 12;
  1902  000382  0E00               	movlw	0
  1903  000384  6E3C               	movwf	(_quantum+1)^0,c
  1904  000386  0E0C               	movlw	12
  1905  000388  6E3B               	movwf	_quantum^0,c
  1906  00038A                     i2l1330:
  1907                           
  1908                           ;timer.c: 67:       if (controle_delay() && 0 == 1)
  1909  00038A  ECC7  F002         	call	_controle_delay	;wreg free
  1910  00038E                     i2l255:
  1911                           
  1912                           ;timer.c: 76:       if (INTCONbits.INT0IF == 1)
  1913  00038E  A2F2               	btfss	242,1,c	;volatile
  1914  000390  EFCC  F001         	goto	i2u43_41
  1915  000394  EFCE  F001         	goto	i2u43_40
  1916  000398                     i2u43_41:
  1917  000398  EFD1  F001         	goto	i2l1366
  1918  00039C                     i2u43_40:
  1919  00039C                     
  1920                           ;timer.c: 77:       {;timer.c: 78:          PORTDbits.RD4 = 1;
  1921  00039C  8883               	bsf	131,4,c	;volatile
  1922  00039E                     
  1923                           ;timer.c: 79:          color_clothes();
  1924  00039E  ECE0  F005         	call	_color_clothes	;wreg free
  1925  0003A2                     i2l1366:
  1926                           
  1927                           ;timer.c: 82:       if (INTCON3bits.INT1IF == 1 && f_clothes.fila_size < 8)
  1928  0003A2  A0F0               	btfss	240,0,c	;volatile
  1929  0003A4  EFD6  F001         	goto	i2u44_41
  1930  0003A8  EFD8  F001         	goto	i2u44_40
  1931  0003AC                     i2u44_41:
  1932  0003AC  EFE6  F001         	goto	i2l286
  1933  0003B0                     i2u44_40:
  1934  0003B0  0100               	movlb	0	; () banked
  1935  0003B2  51B1               	movf	(_f_clothes+49)& (0+255),w,b
  1936  0003B4  E107               	bnz	i2u45_41
  1937  0003B6  0E08               	movlw	8
  1938  0003B8  5DB0               	subwf	(_f_clothes+48)& (0+255),w,b
  1939  0003BA  B0D8               	btfsc	status,0,c
  1940  0003BC  EFE2  F001         	goto	i2u45_41
  1941  0003C0  EFE4  F001         	goto	i2u45_40
  1942  0003C4                     i2u45_41:
  1943  0003C4  EFE6  F001         	goto	i2l286
  1944  0003C8                     i2u45_40:
  1945  0003C8                     
  1946                           ; BSR set to: 0
  1947                           ;timer.c: 83:       {;timer.c: 84:          white_clothes();
  1948  0003C8  ECFD  F004         	call	_white_clothes	;wreg free
  1949  0003CC                     i2l286:
  1950  0003CC  C030  F00C         	movff	??_IRQ_Timer0+15,btemp+11
  1951  0003D0  C02F  F00B         	movff	??_IRQ_Timer0+14,btemp+10
  1952  0003D4  C02E  F00A         	movff	??_IRQ_Timer0+13,btemp+9
  1953  0003D8  C02D  F009         	movff	??_IRQ_Timer0+12,btemp+8
  1954  0003DC  C02C  F002         	movff	??_IRQ_Timer0+11,btemp+1
  1955  0003E0  C02B  F001         	movff	??_IRQ_Timer0+10,btemp
  1956  0003E4  C02A  FFF4         	movff	??_IRQ_Timer0+9,prodh
  1957  0003E8  C029  FFF3         	movff	??_IRQ_Timer0+8,prodl
  1958  0003EC  C028  FFDA         	movff	??_IRQ_Timer0+7,fsr2h
  1959  0003F0  C027  FFD9         	movff	??_IRQ_Timer0+6,fsr2l
  1960  0003F4  C026  FFE2         	movff	??_IRQ_Timer0+5,fsr1h
  1961  0003F8  C025  FFE1         	movff	??_IRQ_Timer0+4,fsr1l
  1962  0003FC  C024  FFEA         	movff	??_IRQ_Timer0+3,fsr0h
  1963  000400  C023  FFE9         	movff	??_IRQ_Timer0+2,fsr0l
  1964  000404  0011               	retfie		f
  1965  000406                     __end_of_IRQ_Timer0:
  1966                           	callstack 0
  1967                           
  1968 ;; *************** function _white_clothes *****************
  1969 ;; Defined at:
  1970 ;;		line 49 in file "tasks.c"
  1971 ;; Parameters:    Size  Location     Type
  1972 ;;		None
  1973 ;; Auto vars:     Size  Location     Type
  1974 ;;  clothes         6  [STACK] struct clothes_control
  1975 ;; Return value:  Size  Location     Type
  1976 ;;                  1  [STACK] void 
  1977 ;; Registers used:
  1978 ;;		wreg, fsr0l, fsr0h, fsr1l, fsr1h, fsr2l, fsr2h, status,2, status,0, btemp+8, btemp+9, btemp+10, btemp+11, prodl, pro
      +dh
  1979 ;; Tracked objects:
  1980 ;;		On entry : 3F/0
  1981 ;;		On exit  : 3F/0
  1982 ;;		Unchanged: 0/0
  1983 ;; Data sizes:     COMRAM   BANK0   BANK1   BANK2   BANK3   BANK4   BANK5
  1984 ;;      Params:         0       0       0       0       0       0       0
  1985 ;;      Locals:         0       0       0       0       0       0       0
  1986 ;;      Temps:          0       0       0       0       0       0       0
  1987 ;;      Totals:         0       0       0       0       0       0       0
  1988 ;;Total ram usage:        0 bytes
  1989 ;; Hardware stack levels used:    1
  1990 ;; This function calls:
  1991 ;;		Nothing
  1992 ;; This function is called by:
  1993 ;;		_IRQ_Timer0
  1994 ;; This function uses a reentrant model
  1995 ;;
  1996                           
  1997                           	psect	text12
  1998  0009FA                     __ptext12:
  1999                           	callstack 0
  2000  0009FA                     _white_clothes:
  2001                           	callstack 0
  2002                           
  2003                           ; autosize = 6, savesize = 0, parsavesize = 0, tempsize = 0 parsize = 0, argsize = 0 var
      +                          gsize = 0, retsize = 0 argfudge = 0
  2004  0009FA  0E06               	movlw	6
  2005  0009FC  26E1               	addwf	fsr1l,f,c
  2006  0009FE  0E00               	movlw	0
  2007  000A00  22E2               	addwfc	fsr1h,f,c
  2008  000A02                     l149:
  2009  000A02                     
  2010                           ;tasks.c: 52:       clothes_control_t clothes;;tasks.c: 53:       clothes.color = 1;
  2011  000A02  0E01               	movlw	1
  2012  000A04  6E0B               	movwf	(btemp+10)^0,c
  2013  000A06  0E00               	movlw	0
  2014  000A08  6E0C               	movwf	(btemp+11)^0,c
  2015                           
  2016                           ;stkvar	_clothes @ sp[(-6)+0]
  2017  000A0A  0EFA               	movlw	-6
  2018  000A0C  C00B  FFE3         	movff	btemp+10,plusw1
  2019  000A10  0EFB               	movlw	-5
  2020  000A12  C00C  FFE3         	movff	btemp+11,plusw1
  2021  000A16                     
  2022                           ;tasks.c: 54:       clothes.washing_cycles = 2;
  2023                           ;stkvar	_clothes @ sp[(-6)+0]
  2024  000A16  0EFC               	movlw	252
  2025  000A18  24E1               	addwf	fsr1l,w,c
  2026  000A1A  6ED9               	movwf	fsr2l,c
  2027  000A1C  0EFF               	movlw	255
  2028  000A1E  20E2               	addwfc	fsr1h,w,c
  2029  000A20  6EDA               	movwf	fsr2h,c
  2030  000A22  0E02               	movlw	2
  2031  000A24  6EDE               	movwf	postinc2,c
  2032  000A26  0E00               	movlw	0
  2033  000A28  6EDD               	movwf	postdec2,c
  2034  000A2A                     
  2035                           ;tasks.c: 55:       clothes.state = 0;
  2036                           ;stkvar	_clothes @ sp[(-6)+0]
  2037  000A2A  0EFE               	movlw	254
  2038  000A2C  24E1               	addwf	fsr1l,w,c
  2039  000A2E  6ED9               	movwf	fsr2l,c
  2040  000A30  0EFF               	movlw	255
  2041  000A32  20E2               	addwfc	fsr1h,w,c
  2042  000A34  6EDA               	movwf	fsr2h,c
  2043  000A36  0E00               	movlw	0
  2044  000A38  6EDE               	movwf	postinc2,c
  2045  000A3A  0E00               	movlw	0
  2046  000A3C  6EDD               	movwf	postdec2,c
  2047  000A3E                     
  2048                           ;tasks.c: 57:       f_clothes.clothes_waiting[f_clothes.fila_size] = clothes;
  2049                           ;stkvar	_clothes @ sp[(-6)+0]
  2050  000A3E  0EFA               	movlw	250
  2051  000A40  24E1               	addwf	fsr1l,w,c
  2052  000A42  6ED9               	movwf	fsr2l,c
  2053  000A44  0EFF               	movlw	255
  2054  000A46  20E2               	addwfc	fsr1h,w,c
  2055  000A48  6EDA               	movwf	fsr2h,c
  2056  000A4A  EE00  F0B0         	lfsr	0,_f_clothes+48
  2057  000A4E  CFEE F00B          	movff	postinc0,btemp+10
  2058  000A52  CFED F00C          	movff	postdec0,btemp+11
  2059  000A56  0E06               	movlw	6
  2060  000A58  020B               	mulwf	(btemp+10)^0,c
  2061  000A5A  CFF3 F009          	movff	prodl,btemp+8
  2062  000A5E  CFF4 F00A          	movff	prodh,btemp+9
  2063  000A62  020C               	mulwf	(btemp+11)^0,c
  2064  000A64  50F3               	movf	prodl,w,c
  2065  000A66  260A               	addwf	(btemp+9)^0,f,c
  2066  000A68  0E80               	movlw	low _f_clothes
  2067  000A6A  2409               	addwf	(btemp+8)^0,w,c
  2068  000A6C  6EE9               	movwf	fsr0l,c
  2069  000A6E  0E00               	movlw	high _f_clothes
  2070  000A70  200A               	addwfc	(btemp+9)^0,w,c
  2071  000A72  6EEA               	movwf	fsr0h,c
  2072  000A74  0E05               	movlw	5
  2073  000A76                     u8_41:
  2074  000A76  CFDB FFEB          	movff	plusw2,plusw0
  2075  000A7A  06E8               	decf	wreg,f,c
  2076  000A7C  E2FC               	bc	u8_41
  2077  000A7E                     
  2078                           ;tasks.c: 58:       f_clothes.fila_size++;
  2079  000A7E  0100               	movlb	0	; () banked
  2080  000A80  4BB0               	infsnz	(_f_clothes+48)& (0+255),f,b
  2081  000A82  2BB1               	incf	(_f_clothes+49)& (0+255),f,b
  2082  000A84                     
  2083                           ; BSR set to: 0
  2084                           ;tasks.c: 59:       INTCON3bits.INT1IF = 0;
  2085  000A84  90F0               	bcf	240,0,c	;volatile
  2086  000A86                     
  2087                           ; BSR set to: 0
  2088                           ;tasks.c: 60:       INTCONbits.GIE = 1;
  2089  000A86  8EF2               	bsf	242,7,c	;volatile
  2090  000A88  EF01  F005         	goto	l149
  2091                           
  2092                           ; _white_clothes: autosize = 6, savesize = 0, parsavesize = 0, tempsize = 0 parsize = 0,
      +                           argsize = 0, vargsize = 0
  2093  000A8C  0EFA               	movlw	250
  2094  000A8E  26E1               	addwf	fsr1l,f,c
  2095  000A90  0EFF               	movlw	255
  2096  000A92  22E2               	addwfc	fsr1h,f,c
  2097  000A94  0012               	return		;funcret
  2098  000A96                     __end_of_white_clothes:
  2099                           	callstack 0
  2100                           
  2101 ;; *************** function _scheduler *****************
  2102 ;; Defined at:
  2103 ;;		line 11 in file "scheduler.c"
  2104 ;; Parameters:    Size  Location     Type
  2105 ;;		None
  2106 ;; Auto vars:     Size  Location     Type
  2107 ;;		None
  2108 ;; Return value:  Size  Location     Type
  2109 ;;                  2  [STACK] unsigned int 
  2110 ;; Registers used:
  2111 ;;		wreg, fsr1l, fsr1h, fsr2l, fsr2h, status,2, status,0, btemp, btemp+1, btemp+8, btemp+9, btemp+10, btemp+11, prodl, p
      +rodh
  2112 ;; Tracked objects:
  2113 ;;		On entry : 0/0
  2114 ;;		On exit  : 0/0
  2115 ;;		Unchanged: 0/0
  2116 ;; Data sizes:     COMRAM   BANK0   BANK1   BANK2   BANK3   BANK4   BANK5
  2117 ;;      Params:         0       0       0       0       0       0       0
  2118 ;;      Locals:         0       0       0       0       0       0       0
  2119 ;;      Temps:          0       0       0       0       0       0       0
  2120 ;;      Totals:         0       0       0       0       0       0       0
  2121 ;;Total ram usage:        0 bytes
  2122 ;; Hardware stack levels used:    1
  2123 ;; Hardware stack levels required when called:    2
  2124 ;; This function calls:
  2125 ;;		_rr_scheduler
  2126 ;; This function is called by:
  2127 ;;		_IRQ_Timer0
  2128 ;; This function uses a reentrant model
  2129 ;;
  2130                           
  2131                           	psect	text13
  2132  000DDC                     __ptext13:
  2133                           	callstack 0
  2134  000DDC                     _scheduler:
  2135                           	callstack 23
  2136  000DDC                     
  2137                           ;scheduler.c: 14:    return rr_scheduler();
  2138  000DDC  EC28  F006         	call	_rr_scheduler	;wreg free
  2139  000DE0                     
  2140                           ; _scheduler: autosize = 0, savesize = 0, parsavesize = 0, tempsize = 0 parsize = 0, arg
      +                          size = 0, vargsize = 0
  2141  000DE0  0012               	return		;funcret
  2142  000DE2                     __end_of_scheduler:
  2143                           	callstack 0
  2144                           
  2145 ;; *************** function _rr_scheduler *****************
  2146 ;; Defined at:
  2147 ;;		line 20 in file "scheduler.c"
  2148 ;; Parameters:    Size  Location     Type
  2149 ;;		None
  2150 ;; Auto vars:     Size  Location     Type
  2151 ;;  next_task       2  [STACK] unsigned int 
  2152 ;; Return value:  Size  Location     Type
  2153 ;;                  2  [STACK] unsigned int 
  2154 ;; Registers used:
  2155 ;;		wreg, fsr1l, fsr1h, fsr2l, fsr2h, status,2, status,0, btemp, btemp+1, btemp+8, btemp+9, btemp+10, btemp+11, prodl, p
      +rodh
  2156 ;; Tracked objects:
  2157 ;;		On entry : 0/0
  2158 ;;		On exit  : 0/0
  2159 ;;		Unchanged: 0/0
  2160 ;; Data sizes:     COMRAM   BANK0   BANK1   BANK2   BANK3   BANK4   BANK5
  2161 ;;      Params:         0       0       0       0       0       0       0
  2162 ;;      Locals:         0       0       0       0       0       0       0
  2163 ;;      Temps:          0       0       0       0       0       0       0
  2164 ;;      Totals:         0       0       0       0       0       0       0
  2165 ;;Total ram usage:        0 bytes
  2166 ;; Hardware stack levels used:    1
  2167 ;; Hardware stack levels required when called:    1
  2168 ;; This function calls:
  2169 ;;		___lwmod
  2170 ;; This function is called by:
  2171 ;;		_scheduler
  2172 ;; This function uses a reentrant model
  2173 ;;
  2174                           
  2175                           	psect	text14
  2176  000C50                     __ptext14:
  2177                           	callstack 0
  2178  000C50                     _rr_scheduler:
  2179                           	callstack 0
  2180                           
  2181                           ; autosize = 2, savesize = 0, parsavesize = 0, tempsize = 0 parsize = 0, argsize = 0 var
      +                          gsize = 0, retsize = 0 argfudge = 0
  2182  000C50  52E6               	movf	postinc1,f,c
  2183  000C52  52E6               	movf	postinc1,f,c
  2184  000C54                     
  2185                           ;scheduler.c: 22:    u_int next_task = f_aptos.task_running;
  2186                           ;stkvar	_next_task @ sp[(-2)+0]
  2187  000C54  0EFE               	movlw	-2
  2188  000C56  C1E8  FFE3         	movff	_f_aptos+232,plusw1
  2189  000C5A  0EFF               	movlw	-1
  2190  000C5C  C1E9  FFE3         	movff	_f_aptos+233,plusw1
  2191  000C60                     l1108:
  2192                           
  2193                           ;scheduler.c: 25:    {;scheduler.c: 26:       next_task = (next_task + 1) % f_aptos.read
      +                          y_queue_size;
  2194  000C60  C1E6  FFE6         	movff	_f_aptos+230,postinc1
  2195  000C64  C1E7  FFE6         	movff	_f_aptos+231,postinc1
  2196                           
  2197                           ;stkvar	_next_task @ sp[(-4)+0]
  2198  000C68  0EFC               	movlw	-4
  2199  000C6A  50E3               	movf	plusw1,w,c
  2200  000C6C  0F01               	addlw	1
  2201  000C6E  6E0B               	movwf	(btemp+10)^0,c
  2202  000C70  0EFD               	movlw	-3
  2203  000C72  CFE3 F00C          	movff	plusw1,btemp+11
  2204  000C76  0E00               	movlw	0
  2205  000C78  220C               	addwfc	(btemp+11)^0,f,c
  2206  000C7A  C00B  FFE6         	movff	btemp+10,postinc1
  2207  000C7E  C00C  FFE6         	movff	btemp+11,postinc1
  2208  000C82  EC76  F003         	call	___lwmod	;wreg free
  2209                           
  2210                           ;stkvar	_next_task @ sp[(-2)+0]
  2211  000C86  0EFE               	movlw	-2
  2212  000C88  C001  FFE3         	movff	btemp,plusw1
  2213  000C8C  0EFF               	movlw	-1
  2214  000C8E  C002  FFE3         	movff	btemp+1,plusw1
  2215  000C92                     
  2216                           ;scheduler.c: 27:    } while (f_aptos.ready_queue[next_task].task_state != READY);
  2217                           ;stkvar	_next_task @ sp[(-2)+0]
  2218  000C92  0EFE               	movlw	-2
  2219  000C94  CFE3 F00B          	movff	plusw1,btemp+10
  2220  000C98  0EFF               	movlw	-1
  2221  000C9A  CFE3 F00C          	movff	plusw1,btemp+11
  2222  000C9E  0E2E               	movlw	46
  2223  000CA0  020B               	mulwf	(btemp+10)^0,c
  2224  000CA2  CFF3 F009          	movff	prodl,btemp+8
  2225  000CA6  CFF4 F00A          	movff	prodh,btemp+9
  2226  000CAA  020C               	mulwf	(btemp+11)^0,c
  2227  000CAC  50F3               	movf	prodl,w,c
  2228  000CAE  260A               	addwf	(btemp+9)^0,f,c
  2229  000CB0  0E02               	movlw	low (_f_aptos+2)
  2230  000CB2  2409               	addwf	(btemp+8)^0,w,c
  2231  000CB4  6ED9               	movwf	fsr2l,c
  2232  000CB6  0E01               	movlw	high (_f_aptos+2)
  2233  000CB8  200A               	addwfc	(btemp+9)^0,w,c
  2234  000CBA  6EDA               	movwf	fsr2h,c
  2235  000CBC  50DF               	movf	indf2,w,c
  2236  000CBE  A4D8               	btfss	status,2,c
  2237  000CC0  EF64  F006         	goto	u6_41
  2238  000CC4  EF66  F006         	goto	u6_40
  2239  000CC8                     u6_41:
  2240  000CC8  EF30  F006         	goto	l1108
  2241  000CCC                     u6_40:
  2242  000CCC                     
  2243                           ;scheduler.c: 29:    return next_task;
  2244                           ;stkvar	_next_task @ sp[(-2)+0]
  2245  000CCC  0EFE               	movlw	-2
  2246  000CCE  CFE3 F001          	movff	plusw1,btemp
  2247  000CD2  0EFF               	movlw	-1
  2248  000CD4  CFE3 F002          	movff	plusw1,btemp+1
  2249  000CD8                     
  2250                           ; _rr_scheduler: autosize = 2, savesize = 0, parsavesize = 0, tempsize = 0 parsize = 0, 
      +                          argsize = 0, vargsize = 0
  2251  000CD8  52E5               	movf	postdec1,f,c
  2252  000CDA  52E5               	movf	postdec1,f,c
  2253  000CDC  0012               	return		;funcret
  2254  000CDE                     __end_of_rr_scheduler:
  2255                           	callstack 0
  2256                           
  2257 ;; *************** function ___lwmod *****************
  2258 ;; Defined at:
  2259 ;;		line 7 in file "C:\Program Files\Microchip\xc8\v2.20\pic\sources\c99\common\lwmod.c"
  2260 ;; Parameters:    Size  Location     Type
  2261 ;;  dividend        2  [STACK] unsigned int 
  2262 ;;  divisor         2  [STACK] unsigned int 
  2263 ;; Auto vars:     Size  Location     Type
  2264 ;;  counter         1  [STACK] unsigned char 
  2265 ;; Return value:  Size  Location     Type
  2266 ;;                  2  [STACK] unsigned int 
  2267 ;; Registers used:
  2268 ;;		wreg, fsr1l, fsr1h, status,2, status,0, btemp, btemp+1, btemp+8, btemp+9, btemp+10, btemp+11, prodl
  2269 ;; Tracked objects:
  2270 ;;		On entry : 0/0
  2271 ;;		On exit  : 0/0
  2272 ;;		Unchanged: 0/0
  2273 ;; Data sizes:     COMRAM   BANK0   BANK1   BANK2   BANK3   BANK4   BANK5
  2274 ;;      Params:         0       0       0       0       0       0       0
  2275 ;;      Locals:         0       0       0       0       0       0       0
  2276 ;;      Temps:          0       0       0       0       0       0       0
  2277 ;;      Totals:         0       0       0       0       0       0       0
  2278 ;;Total ram usage:        0 bytes
  2279 ;; Hardware stack levels used:    1
  2280 ;; This function calls:
  2281 ;;		Nothing
  2282 ;; This function is called by:
  2283 ;;		_rr_scheduler
  2284 ;; This function uses a reentrant model
  2285 ;;
  2286                           
  2287                           	psect	text15
  2288  0006EC                     __ptext15:
  2289                           	callstack 0
  2290  0006EC                     ___lwmod:
  2291                           	callstack 0
  2292                           
  2293                           ; autosize = 1, savesize = 0, parsavesize = 0, tempsize = 0 parsize = 4, argsize = 4 var
      +                          gsize = 0, retsize = 0 argfudge = 0
  2294  0006EC  52E6               	movf	postinc1,f,c
  2295  0006EE                     
  2296                           ;stkvar	_divisor @ sp[(-1)+-4]
  2297  0006EE  0EFB               	movlw	-5
  2298  0006F0  CFE3 F001          	movff	plusw1,btemp
  2299  0006F4  0EFC               	movlw	-4
  2300  0006F6  50E3               	movf	plusw1,w,c
  2301  0006F8  1001               	iorwf	btemp^0,w,c
  2302  0006FA  B4D8               	btfsc	status,2,c
  2303  0006FC  EF82  F003         	goto	u1_41
  2304  000700  EF84  F003         	goto	u1_40
  2305  000704                     u1_41:
  2306  000704  EFDF  F003         	goto	l1080
  2307  000708                     u1_40:
  2308  000708                     
  2309                           ;stkvar	_counter @ sp[(-1)+0]
  2310  000708  0EFF               	movlw	-1
  2311  00070A  6AE3               	clrf	plusw1,c
  2312  00070C  2AE3               	incf	plusw1,f,c
  2313  00070E  EF9A  F003         	goto	l1070
  2314  000712                     l1066:
  2315                           
  2316                           ;stkvar	_divisor @ sp[(-1)+-4]
  2317  000712  0EFB               	movlw	-5
  2318  000714  50E3               	movf	plusw1,w,c
  2319  000716  90D8               	bcf	status,0,c
  2320  000718  34E8               	rlcf	wreg,w,c
  2321  00071A  6E01               	movwf	btemp^0,c
  2322  00071C  0EFB               	movlw	-5
  2323  00071E  C001  FFE3         	movff	btemp,plusw1
  2324  000722  0EFC               	movlw	-4
  2325  000724  50E3               	movf	plusw1,w,c
  2326  000726  34E8               	rlcf	wreg,w,c
  2327  000728  6E01               	movwf	btemp^0,c
  2328  00072A  0EFC               	movlw	-4
  2329  00072C  C001  FFE3         	movff	btemp,plusw1
  2330  000730                     
  2331                           ;stkvar	_counter @ sp[(-1)+0]
  2332  000730  0EFF               	movlw	-1
  2333  000732  2AE3               	incf	plusw1,f,c
  2334  000734                     l1070:
  2335                           
  2336                           ;stkvar	_divisor @ sp[(-1)+-4]
  2337  000734  0EFC               	movlw	-4
  2338  000736  AEE3               	btfss	plusw1,7,c
  2339  000738  EFA0  F003         	goto	u2_41
  2340  00073C  EFA2  F003         	goto	u2_40
  2341  000740                     u2_41:
  2342  000740  EF89  F003         	goto	l1066
  2343  000744                     u2_40:
  2344  000744                     l1072:
  2345                           
  2346                           ;stkvar	_divisor @ sp[(-1)+-4]
  2347  000744  0EFB               	movlw	-5
  2348  000746  CFE3 F00B          	movff	plusw1,btemp+10
  2349  00074A  0EFC               	movlw	-4
  2350  00074C  CFE3 F00C          	movff	plusw1,btemp+11
  2351                           
  2352                           ;stkvar	_dividend @ sp[(-1)+-2]
  2353  000750  0EFD               	movlw	-3
  2354  000752  CFE3 F009          	movff	plusw1,btemp+8
  2355  000756  0EFE               	movlw	-2
  2356  000758  CFE3 F00A          	movff	plusw1,btemp+9
  2357  00075C  500B               	movf	(btemp+10)^0,w,c
  2358  00075E  5C09               	subwf	(btemp+8)^0,w,c
  2359  000760  500C               	movf	(btemp+11)^0,w,c
  2360  000762  580A               	subwfb	(btemp+9)^0,w,c
  2361  000764  A0D8               	btfss	status,0,c
  2362  000766  EFB7  F003         	goto	u3_41
  2363  00076A  EFB9  F003         	goto	u3_40
  2364  00076E                     u3_41:
  2365  00076E  EFCB  F003         	goto	l1076
  2366  000772                     u3_40:
  2367  000772                     
  2368                           ;stkvar	_divisor @ sp[(-1)+-4]
  2369                           ;stkvar	_dividend @ sp[(-1)+-2]
  2370  000772  0EFD               	movlw	-3
  2371  000774  50E3               	movf	plusw1,w,c
  2372  000776  6E01               	movwf	btemp^0,c
  2373  000778  0EFB               	movlw	-5
  2374  00077A  50E3               	movf	plusw1,w,c
  2375  00077C  5E01               	subwf	btemp^0,f,c
  2376  00077E  0EFD               	movlw	-3
  2377  000780  C001  FFE3         	movff	btemp,plusw1
  2378  000784  0EFE               	movlw	-2
  2379  000786  50E3               	movf	plusw1,w,c
  2380  000788  6E01               	movwf	btemp^0,c
  2381  00078A  0EFC               	movlw	-4
  2382  00078C  50E3               	movf	plusw1,w,c
  2383  00078E  5A01               	subwfb	btemp^0,f,c
  2384  000790  0EFE               	movlw	-2
  2385  000792  C001  FFE3         	movff	btemp,plusw1
  2386  000796                     l1076:
  2387                           
  2388                           ;stkvar	_divisor @ sp[(-1)+-4]
  2389  000796  90D8               	bcf	status,0,c
  2390  000798  0EFC               	movlw	-4
  2391  00079A  32E3               	rrcf	plusw1,f,c
  2392  00079C  0EFB               	movlw	-5
  2393  00079E  32E3               	rrcf	plusw1,f,c
  2394  0007A0                     
  2395                           ;stkvar	_counter @ sp[(-1)+0]
  2396  0007A0  0EFF               	movlw	-1
  2397  0007A2  50E3               	movf	plusw1,w,c
  2398  0007A4  6E01               	movwf	btemp^0,c
  2399  0007A6  0E01               	movlw	1
  2400  0007A8  5E01               	subwf	btemp^0,f,c
  2401  0007AA  0EFF               	movlw	-1
  2402  0007AC  C001  FFE3         	movff	btemp,plusw1
  2403  0007B0  A4D8               	btfss	status,2,c
  2404  0007B2  EFDD  F003         	goto	u4_41
  2405  0007B6  EFDF  F003         	goto	u4_40
  2406  0007BA                     u4_41:
  2407  0007BA  EFA2  F003         	goto	l1072
  2408  0007BE                     u4_40:
  2409  0007BE                     l1080:
  2410                           
  2411                           ;stkvar	_dividend @ sp[(-1)+-2]
  2412  0007BE  0EFD               	movlw	-3
  2413  0007C0  CFE3 F001          	movff	plusw1,btemp
  2414  0007C4  0EFE               	movlw	-2
  2415  0007C6  CFE3 F002          	movff	plusw1,btemp+1
  2416  0007CA                     
  2417                           ; ___lwmod: autosize = 1, savesize = 0, parsavesize = 0, tempsize = 0 parsize = 4, argsi
      +                          ze = 4, vargsize = 0
  2418  0007CA  0EFB               	movlw	251
  2419  0007CC  26E1               	addwf	fsr1l,f,c
  2420  0007CE  0EFF               	movlw	255
  2421  0007D0  22E2               	addwfc	fsr1h,f,c
  2422  0007D2  0012               	return		;funcret
  2423  0007D4                     __end_of___lwmod:
  2424                           	callstack 0
  2425                           
  2426 ;; *************** function _controle_delay *****************
  2427 ;; Defined at:
  2428 ;;		line 27 in file "timer.c"
  2429 ;; Parameters:    Size  Location     Type
  2430 ;;		None
  2431 ;; Auto vars:     Size  Location     Type
  2432 ;;  i               2  [STACK] int 
  2433 ;;  flag            2  [STACK] int 
  2434 ;; Return value:  Size  Location     Type
  2435 ;;                  2  [STACK] unsigned int 
  2436 ;; Registers used:
  2437 ;;		wreg, fsr1l, fsr1h, fsr2l, fsr2h, status,2, status,0, btemp, btemp+1, btemp+8, btemp+9, btemp+10, btemp+11, prodl, p
      +rodh
  2438 ;; Tracked objects:
  2439 ;;		On entry : 0/0
  2440 ;;		On exit  : 3F/1
  2441 ;;		Unchanged: 0/0
  2442 ;; Data sizes:     COMRAM   BANK0   BANK1   BANK2   BANK3   BANK4   BANK5
  2443 ;;      Params:         0       0       0       0       0       0       0
  2444 ;;      Locals:         0       0       0       0       0       0       0
  2445 ;;      Temps:          0       0       0       0       0       0       0
  2446 ;;      Totals:         0       0       0       0       0       0       0
  2447 ;;Total ram usage:        0 bytes
  2448 ;; Hardware stack levels used:    1
  2449 ;; This function calls:
  2450 ;;		Nothing
  2451 ;; This function is called by:
  2452 ;;		_IRQ_Timer0
  2453 ;; This function uses a reentrant model
  2454 ;;
  2455                           
  2456                           	psect	text16
  2457  00058E                     __ptext16:
  2458                           	callstack 0
  2459  00058E                     _controle_delay:
  2460                           	callstack 0
  2461                           
  2462                           ; autosize = 4, savesize = 0, parsavesize = 0, tempsize = 0 parsize = 0, argsize = 0 var
      +                          gsize = 0, retsize = 0 argfudge = 0
  2463  00058E  52E6               	movf	postinc1,f,c
  2464  000590  52E6               	movf	postinc1,f,c
  2465  000592  52E6               	movf	postinc1,f,c
  2466  000594  52E6               	movf	postinc1,f,c
  2467  000596                     
  2468                           ;timer.c: 28:    int i, flag = 0;
  2469                           ;stkvar	_flag @ sp[(-4)+2]
  2470  000596  0EFE               	movlw	-2
  2471  000598  6AE3               	clrf	plusw1,c
  2472  00059A  0EFF               	movlw	-1
  2473  00059C  6AE3               	clrf	plusw1,c
  2474                           
  2475                           ;timer.c: 31:    for (i = 0; i < f_aptos.ready_queue_size; i++) {
  2476                           ;stkvar	_i @ sp[(-4)+0]
  2477  00059E  0EFC               	movlw	-4
  2478  0005A0  6AE3               	clrf	plusw1,c
  2479  0005A2  0EFD               	movlw	-3
  2480  0005A4  6AE3               	clrf	plusw1,c
  2481  0005A6  EF59  F003         	goto	l1216
  2482  0005AA                     l1204:
  2483                           
  2484                           ; BSR set to: 1
  2485                           ;timer.c: 32:       if (f_aptos.ready_queue[i].task_state == WAITING_DELAY) {
  2486                           ;stkvar	_i @ sp[(-4)+0]
  2487  0005AA  0EFC               	movlw	-4
  2488  0005AC  CFE3 F00B          	movff	plusw1,btemp+10
  2489  0005B0  0EFD               	movlw	-3
  2490  0005B2  CFE3 F00C          	movff	plusw1,btemp+11
  2491  0005B6  0E2E               	movlw	46
  2492  0005B8  020B               	mulwf	(btemp+10)^0,c
  2493  0005BA  CFF3 F009          	movff	prodl,btemp+8
  2494  0005BE  CFF4 F00A          	movff	prodh,btemp+9
  2495  0005C2  020C               	mulwf	(btemp+11)^0,c
  2496  0005C4  50F3               	movf	prodl,w,c
  2497  0005C6  260A               	addwf	(btemp+9)^0,f,c
  2498  0005C8  0E02               	movlw	low (_f_aptos+2)
  2499  0005CA  2409               	addwf	(btemp+8)^0,w,c
  2500  0005CC  6ED9               	movwf	fsr2l,c
  2501  0005CE  0E01               	movlw	high (_f_aptos+2)
  2502  0005D0  200A               	addwfc	(btemp+9)^0,w,c
  2503  0005D2  6EDA               	movwf	fsr2h,c
  2504  0005D4  0E03               	movlw	3
  2505  0005D6  18DE               	xorwf	postinc2,w,c
  2506  0005D8  A4D8               	btfss	status,2,c
  2507  0005DA  EFF1  F002         	goto	u17_41
  2508  0005DE  EFF3  F002         	goto	u17_40
  2509  0005E2                     u17_41:
  2510  0005E2  EF4A  F003         	goto	l1214
  2511  0005E6                     u17_40:
  2512  0005E6                     
  2513                           ; BSR set to: 1
  2514                           ;timer.c: 33:          f_aptos.ready_queue[i].delay--;
  2515                           ;stkvar	_i @ sp[(-4)+0]
  2516  0005E6  0EFC               	movlw	-4
  2517  0005E8  CFE3 F00B          	movff	plusw1,btemp+10
  2518  0005EC  0EFD               	movlw	-3
  2519  0005EE  CFE3 F00C          	movff	plusw1,btemp+11
  2520  0005F2  0E2E               	movlw	46
  2521  0005F4  020B               	mulwf	(btemp+10)^0,c
  2522  0005F6  CFF3 F009          	movff	prodl,btemp+8
  2523  0005FA  CFF4 F00A          	movff	prodh,btemp+9
  2524  0005FE  020C               	mulwf	(btemp+11)^0,c
  2525  000600  50F3               	movf	prodl,w,c
  2526  000602  260A               	addwf	(btemp+9)^0,f,c
  2527  000604  0E2C               	movlw	low (_f_aptos+44)
  2528  000606  2409               	addwf	(btemp+8)^0,w,c
  2529  000608  6ED9               	movwf	fsr2l,c
  2530  00060A  0E01               	movlw	high (_f_aptos+44)
  2531  00060C  200A               	addwfc	(btemp+9)^0,w,c
  2532  00060E  6EDA               	movwf	fsr2h,c
  2533  000610  06DE               	decf	postinc2,f,c
  2534  000612  0E00               	movlw	0
  2535  000614  5ADD               	subwfb	postdec2,f,c
  2536  000616                     
  2537                           ; BSR set to: 1
  2538                           ;timer.c: 34:          if (f_aptos.ready_queue[i].delay == 0) {
  2539                           ;stkvar	_i @ sp[(-4)+0]
  2540  000616  0EFC               	movlw	-4
  2541  000618  CFE3 F00B          	movff	plusw1,btemp+10
  2542  00061C  0EFD               	movlw	-3
  2543  00061E  CFE3 F00C          	movff	plusw1,btemp+11
  2544  000622  0E2E               	movlw	46
  2545  000624  020B               	mulwf	(btemp+10)^0,c
  2546  000626  CFF3 F009          	movff	prodl,btemp+8
  2547  00062A  CFF4 F00A          	movff	prodh,btemp+9
  2548  00062E  020C               	mulwf	(btemp+11)^0,c
  2549  000630  50F3               	movf	prodl,w,c
  2550  000632  260A               	addwf	(btemp+9)^0,f,c
  2551  000634  0E2C               	movlw	low (_f_aptos+44)
  2552  000636  2409               	addwf	(btemp+8)^0,w,c
  2553  000638  6ED9               	movwf	fsr2l,c
  2554  00063A  0E01               	movlw	high (_f_aptos+44)
  2555  00063C  200A               	addwfc	(btemp+9)^0,w,c
  2556  00063E  6EDA               	movwf	fsr2h,c
  2557  000640  50DE               	movf	postinc2,w,c
  2558  000642  10DE               	iorwf	postinc2,w,c
  2559  000644  A4D8               	btfss	status,2,c
  2560  000646  EF27  F003         	goto	u18_41
  2561  00064A  EF29  F003         	goto	u18_40
  2562  00064E                     u18_41:
  2563  00064E  EF4A  F003         	goto	l1214
  2564  000652                     u18_40:
  2565  000652                     
  2566                           ; BSR set to: 1
  2567                           ;timer.c: 35:             f_aptos.ready_queue[i].task_state = READY;
  2568                           ;stkvar	_i @ sp[(-4)+0]
  2569  000652  0EFC               	movlw	-4
  2570  000654  CFE3 F00B          	movff	plusw1,btemp+10
  2571  000658  0EFD               	movlw	-3
  2572  00065A  CFE3 F00C          	movff	plusw1,btemp+11
  2573  00065E  0E2E               	movlw	46
  2574  000660  020B               	mulwf	(btemp+10)^0,c
  2575  000662  CFF3 F009          	movff	prodl,btemp+8
  2576  000666  CFF4 F00A          	movff	prodh,btemp+9
  2577  00066A  020C               	mulwf	(btemp+11)^0,c
  2578  00066C  50F3               	movf	prodl,w,c
  2579  00066E  260A               	addwf	(btemp+9)^0,f,c
  2580  000670  0E02               	movlw	low (_f_aptos+2)
  2581  000672  2409               	addwf	(btemp+8)^0,w,c
  2582  000674  6ED9               	movwf	fsr2l,c
  2583  000676  0E01               	movlw	high (_f_aptos+2)
  2584  000678  200A               	addwfc	(btemp+9)^0,w,c
  2585  00067A  6EDA               	movwf	fsr2h,c
  2586  00067C  0E00               	movlw	0
  2587  00067E  6EDF               	movwf	indf2,c
  2588  000680                     
  2589                           ; BSR set to: 1
  2590                           ;timer.c: 36:             flag = 1;
  2591  000680  0E01               	movlw	1
  2592  000682  6E0B               	movwf	(btemp+10)^0,c
  2593  000684  0E00               	movlw	0
  2594  000686  6E0C               	movwf	(btemp+11)^0,c
  2595                           
  2596                           ;stkvar	_flag @ sp[(-4)+2]
  2597  000688  0EFE               	movlw	-2
  2598  00068A  C00B  FFE3         	movff	btemp+10,plusw1
  2599  00068E  0EFF               	movlw	-1
  2600  000690  C00C  FFE3         	movff	btemp+11,plusw1
  2601  000694                     l1214:
  2602                           
  2603                           ; BSR set to: 1
  2604                           ;timer.c: 39:    }
  2605                           ;stkvar	_i @ sp[(-4)+0]
  2606  000694  0EFC               	movlw	-4
  2607  000696  50E3               	movf	plusw1,w,c
  2608  000698  0F01               	addlw	1
  2609  00069A  6E01               	movwf	btemp^0,c
  2610  00069C  0EFC               	movlw	-4
  2611  00069E  C001  FFE3         	movff	btemp,plusw1
  2612  0006A2  6A01               	clrf	btemp^0,c
  2613  0006A4  0EFD               	movlw	-3
  2614  0006A6  50E3               	movf	plusw1,w,c
  2615  0006A8  2001               	addwfc	btemp^0,w,c
  2616  0006AA  6E01               	movwf	btemp^0,c
  2617  0006AC  0EFD               	movlw	-3
  2618  0006AE  C001  FFE3         	movff	btemp,plusw1
  2619  0006B2                     l1216:
  2620                           
  2621                           ;stkvar	_i @ sp[(-4)+0]
  2622  0006B2  0EFC               	movlw	-4
  2623  0006B4  CFE3 F001          	movff	plusw1,btemp
  2624  0006B8  0101               	movlb	1	; () banked
  2625  0006BA  51E6               	movf	(_f_aptos+230)& (0+255),w,b
  2626  0006BC  5C01               	subwf	btemp^0,w,c
  2627  0006BE  0EFD               	movlw	-3
  2628  0006C0  CFE3 F001          	movff	plusw1,btemp
  2629  0006C4  51E7               	movf	(_f_aptos+231)& (0+255),w,b
  2630  0006C6  5801               	subwfb	btemp^0,w,c
  2631  0006C8  A0D8               	btfss	status,0,c
  2632  0006CA  EF69  F003         	goto	u19_41
  2633  0006CE  EF6B  F003         	goto	u19_40
  2634  0006D2                     u19_41:
  2635  0006D2  EFD5  F002         	goto	l1204
  2636  0006D6                     u19_40:
  2637  0006D6                     
  2638                           ; BSR set to: 1
  2639                           ;timer.c: 41:    return flag;
  2640                           ;stkvar	_flag @ sp[(-4)+2]
  2641  0006D6  0EFE               	movlw	-2
  2642  0006D8  CFE3 F001          	movff	plusw1,btemp
  2643  0006DC  0EFF               	movlw	-1
  2644  0006DE  CFE3 F002          	movff	plusw1,btemp+1
  2645  0006E2                     
  2646                           ; BSR set to: 1
  2647                           ; _controle_delay: autosize = 4, savesize = 0, parsavesize = 0, tempsize = 0 parsize = 0
      +                          , argsize = 0, vargsize = 0
  2648  0006E2  52E5               	movf	postdec1,f,c
  2649  0006E4  52E5               	movf	postdec1,f,c
  2650  0006E6  52E5               	movf	postdec1,f,c
  2651  0006E8  52E5               	movf	postdec1,f,c
  2652  0006EA  0012               	return		;funcret
  2653  0006EC                     __end_of_controle_delay:
  2654                           	callstack 0
  2655                           
  2656 ;; *************** function _color_clothes *****************
  2657 ;; Defined at:
  2658 ;;		line 33 in file "tasks.c"
  2659 ;; Parameters:    Size  Location     Type
  2660 ;;		None
  2661 ;; Auto vars:     Size  Location     Type
  2662 ;;  clothes         6  [STACK] struct clothes_control
  2663 ;; Return value:  Size  Location     Type
  2664 ;;                  1  [STACK] void 
  2665 ;; Registers used:
  2666 ;;		wreg, fsr0l, fsr0h, fsr1l, fsr1h, fsr2l, fsr2h, status,2, status,0, btemp+8, btemp+9, btemp+10, btemp+11, prodl, pro
      +dh
  2667 ;; Tracked objects:
  2668 ;;		On entry : 0/0
  2669 ;;		On exit  : 3F/0
  2670 ;;		Unchanged: 0/0
  2671 ;; Data sizes:     COMRAM   BANK0   BANK1   BANK2   BANK3   BANK4   BANK5
  2672 ;;      Params:         0       0       0       0       0       0       0
  2673 ;;      Locals:         0       0       0       0       0       0       0
  2674 ;;      Temps:          0       0       0       0       0       0       0
  2675 ;;      Totals:         0       0       0       0       0       0       0
  2676 ;;Total ram usage:        0 bytes
  2677 ;; Hardware stack levels used:    1
  2678 ;; This function calls:
  2679 ;;		Nothing
  2680 ;; This function is called by:
  2681 ;;		_IRQ_Timer0
  2682 ;; This function uses a reentrant model
  2683 ;;
  2684                           
  2685                           	psect	text17
  2686  000BC0                     __ptext17:
  2687                           	callstack 0
  2688  000BC0                     _color_clothes:
  2689                           	callstack 0
  2690                           
  2691                           ; BSR set to: 1
  2692                           ; autosize = 6, savesize = 0, parsavesize = 0, tempsize = 0 parsize = 0, argsize = 0 var
      +                          gsize = 0, retsize = 0 argfudge = 0
  2693  000BC0  0E06               	movlw	6
  2694  000BC2  26E1               	addwf	fsr1l,f,c
  2695  000BC4  0E00               	movlw	0
  2696  000BC6  22E2               	addwfc	fsr1h,f,c
  2697  000BC8                     l143:
  2698  000BC8                     
  2699                           ;tasks.c: 36:       clothes_control_t clothes;;tasks.c: 37:       clothes.color = 0;
  2700                           ;stkvar	_clothes @ sp[(-6)+0]
  2701  000BC8  0EFA               	movlw	-6
  2702  000BCA  6AE3               	clrf	plusw1,c
  2703  000BCC  0EFB               	movlw	-5
  2704  000BCE  6AE3               	clrf	plusw1,c
  2705  000BD0                     
  2706                           ;tasks.c: 38:       clothes.washing_cycles = 1;
  2707                           ;stkvar	_clothes @ sp[(-6)+0]
  2708  000BD0  0EFC               	movlw	252
  2709  000BD2  24E1               	addwf	fsr1l,w,c
  2710  000BD4  6ED9               	movwf	fsr2l,c
  2711  000BD6  0EFF               	movlw	255
  2712  000BD8  20E2               	addwfc	fsr1h,w,c
  2713  000BDA  6EDA               	movwf	fsr2h,c
  2714  000BDC  0E01               	movlw	1
  2715  000BDE  6EDE               	movwf	postinc2,c
  2716  000BE0  0E00               	movlw	0
  2717  000BE2  6EDD               	movwf	postdec2,c
  2718  000BE4                     
  2719                           ;tasks.c: 39:       clothes.state = 0;
  2720                           ;stkvar	_clothes @ sp[(-6)+0]
  2721  000BE4  0EFE               	movlw	254
  2722  000BE6  24E1               	addwf	fsr1l,w,c
  2723  000BE8  6ED9               	movwf	fsr2l,c
  2724  000BEA  0EFF               	movlw	255
  2725  000BEC  20E2               	addwfc	fsr1h,w,c
  2726  000BEE  6EDA               	movwf	fsr2h,c
  2727  000BF0  0E00               	movlw	0
  2728  000BF2  6EDE               	movwf	postinc2,c
  2729  000BF4  0E00               	movlw	0
  2730  000BF6  6EDD               	movwf	postdec2,c
  2731  000BF8                     
  2732                           ;tasks.c: 41:       f_clothes.clothes_waiting[f_clothes.fila_size] = clothes;
  2733                           ;stkvar	_clothes @ sp[(-6)+0]
  2734  000BF8  0EFA               	movlw	250
  2735  000BFA  24E1               	addwf	fsr1l,w,c
  2736  000BFC  6ED9               	movwf	fsr2l,c
  2737  000BFE  0EFF               	movlw	255
  2738  000C00  20E2               	addwfc	fsr1h,w,c
  2739  000C02  6EDA               	movwf	fsr2h,c
  2740  000C04  EE00  F0B0         	lfsr	0,_f_clothes+48
  2741  000C08  CFEE F00B          	movff	postinc0,btemp+10
  2742  000C0C  CFED F00C          	movff	postdec0,btemp+11
  2743  000C10  0E06               	movlw	6
  2744  000C12  020B               	mulwf	(btemp+10)^0,c
  2745  000C14  CFF3 F009          	movff	prodl,btemp+8
  2746  000C18  CFF4 F00A          	movff	prodh,btemp+9
  2747  000C1C  020C               	mulwf	(btemp+11)^0,c
  2748  000C1E  50F3               	movf	prodl,w,c
  2749  000C20  260A               	addwf	(btemp+9)^0,f,c
  2750  000C22  0E80               	movlw	low _f_clothes
  2751  000C24  2409               	addwf	(btemp+8)^0,w,c
  2752  000C26  6EE9               	movwf	fsr0l,c
  2753  000C28  0E00               	movlw	high _f_clothes
  2754  000C2A  200A               	addwfc	(btemp+9)^0,w,c
  2755  000C2C  6EEA               	movwf	fsr0h,c
  2756  000C2E  0E05               	movlw	5
  2757  000C30                     u7_41:
  2758  000C30  CFDB FFEB          	movff	plusw2,plusw0
  2759  000C34  06E8               	decf	wreg,f,c
  2760  000C36  E2FC               	bc	u7_41
  2761  000C38                     
  2762                           ;tasks.c: 42:       f_clothes.fila_size++;
  2763  000C38  0100               	movlb	0	; () banked
  2764  000C3A  4BB0               	infsnz	(_f_clothes+48)& (0+255),f,b
  2765  000C3C  2BB1               	incf	(_f_clothes+49)& (0+255),f,b
  2766  000C3E                     
  2767                           ; BSR set to: 0
  2768                           ;tasks.c: 44:       INTCONbits.INT0IF = 0;
  2769  000C3E  92F2               	bcf	242,1,c	;volatile
  2770  000C40                     
  2771                           ; BSR set to: 0
  2772                           ;tasks.c: 45:       INTCONbits.GIE = 1;
  2773  000C40  8EF2               	bsf	242,7,c	;volatile
  2774  000C42  EFE4  F005         	goto	l143
  2775                           
  2776                           ; _color_clothes: autosize = 6, savesize = 0, parsavesize = 0, tempsize = 0 parsize = 0,
      +                           argsize = 0, vargsize = 0
  2777  000C46  0EFA               	movlw	250
  2778  000C48  26E1               	addwf	fsr1l,f,c
  2779  000C4A  0EFF               	movlw	255
  2780  000C4C  22E2               	addwfc	fsr1h,f,c
  2781  000C4E  0012               	return		;funcret
  2782  000C50                     __end_of_color_clothes:
  2783                           	callstack 0
  2784                           
  2785 ;; *************** function ___wmul *****************
  2786 ;; Defined at:
  2787 ;;		line 15 in file "C:\Program Files\Microchip\xc8\v2.20\pic\sources\c99\common\Umul16.c"
  2788 ;; Parameters:    Size  Location     Type
  2789 ;;  multiplier      2  [STACK] unsigned int 
  2790 ;;  multiplicand    2  [STACK] unsigned int 
  2791 ;; Auto vars:     Size  Location     Type
  2792 ;;  product         2  [STACK] unsigned int 
  2793 ;; Return value:  Size  Location     Type
  2794 ;;                  2  [STACK] unsigned int 
  2795 ;; Registers used:
  2796 ;;		wreg, fsr1l, fsr1h, fsr2l, fsr2h, status,2, status,0, btemp, btemp+1, btemp+11, prodl, prodh
  2797 ;; Tracked objects:
  2798 ;;		On entry : 0/0
  2799 ;;		On exit  : 0/0
  2800 ;;		Unchanged: 0/0
  2801 ;; Data sizes:     COMRAM   BANK0   BANK1   BANK2   BANK3   BANK4   BANK5
  2802 ;;      Params:         0       0       0       0       0       0       0
  2803 ;;      Locals:         0       0       0       0       0       0       0
  2804 ;;      Temps:          0       0       0       0       0       0       0
  2805 ;;      Totals:         0       0       0       0       0       0       0
  2806 ;;Total ram usage:        0 bytes
  2807 ;; Hardware stack levels used:    1
  2808 ;; This function calls:
  2809 ;;		Nothing
  2810 ;; This function is called by:
  2811 ;;		_IRQ_Timer0
  2812 ;; This function uses a reentrant model
  2813 ;;
  2814                           
  2815                           	psect	text18
  2816  000A96                     __ptext18:
  2817                           	callstack 0
  2818  000A96                     ___wmul:
  2819                           	callstack 0
  2820                           
  2821                           ; BSR set to: 0
  2822                           ; autosize = 2, savesize = 0, parsavesize = 0, tempsize = 0 parsize = 4, argsize = 4 var
      +                          gsize = 0, retsize = 0 argfudge = 0
  2823  000A96  52E6               	movf	postinc1,f,c
  2824  000A98  52E6               	movf	postinc1,f,c
  2825  000A9A                     
  2826                           ;stkvar	_multiplicand @ sp[(-2)+-4]
  2827  000A9A  0EFA               	movlw	-6
  2828  000A9C  CFE3 F00C          	movff	plusw1,btemp+11
  2829                           
  2830                           ;stkvar	_multiplier @ sp[(-2)+-2]
  2831  000AA0  0EFC               	movlw	-4
  2832  000AA2  50E3               	movf	plusw1,w,c
  2833  000AA4  020C               	mulwf	(btemp+11)^0,c
  2834                           
  2835                           ;stkvar	_product @ sp[(-2)+0]
  2836  000AA6  0EFE               	movlw	-2
  2837  000AA8  CFF3 FFE3          	movff	prodl,plusw1
  2838  000AAC  0EFF               	movlw	-1
  2839  000AAE  CFF4 FFE3          	movff	prodh,plusw1
  2840  000AB2                     
  2841                           ;stkvar	_multiplicand @ sp[(-2)+-4]
  2842  000AB2  0EFB               	movlw	251
  2843  000AB4  24E1               	addwf	fsr1l,w,c
  2844  000AB6  6ED9               	movwf	fsr2l,c
  2845  000AB8  0EFF               	movlw	255
  2846  000ABA  20E2               	addwfc	fsr1h,w,c
  2847  000ABC  6EDA               	movwf	fsr2h,c
  2848  000ABE  50DF               	movf	indf2,w,c
  2849  000AC0  6E0C               	movwf	(btemp+11)^0,c
  2850                           
  2851                           ;stkvar	_multiplier @ sp[(-2)+-2]
  2852  000AC2  0EFC               	movlw	-4
  2853  000AC4  50E3               	movf	plusw1,w,c
  2854  000AC6  020C               	mulwf	(btemp+11)^0,c
  2855  000AC8  CFF3 FFF4          	movff	prodl,prodh
  2856  000ACC  6AF3               	clrf	243,c
  2857                           
  2858                           ;stkvar	_product @ sp[(-2)+0]
  2859  000ACE  50E1               	movf	fsr1l,w,c
  2860  000AD0  0FFE               	addlw	-2
  2861  000AD2  6ED9               	movwf	fsr2l,c
  2862  000AD4  50E2               	movf	fsr1h,w,c
  2863  000AD6  6EDA               	movwf	fsr2h,c
  2864  000AD8  0EFF               	movlw	255
  2865  000ADA  22DA               	addwfc	fsr2h,f,c
  2866  000ADC  50F3               	movf	243,w,c
  2867  000ADE  26DE               	addwf	postinc2,f,c
  2868  000AE0  50F4               	movf	244,w,c
  2869  000AE2  22DD               	addwfc	postdec2,f,c
  2870  000AE4                     
  2871                           ;stkvar	_multiplicand @ sp[(-2)+-4]
  2872  000AE4  0EFA               	movlw	-6
  2873  000AE6  CFE3 F00C          	movff	plusw1,btemp+11
  2874                           
  2875                           ;stkvar	_multiplier @ sp[(-2)+-2]
  2876  000AEA  0EFD               	movlw	253
  2877  000AEC  24E1               	addwf	fsr1l,w,c
  2878  000AEE  6ED9               	movwf	fsr2l,c
  2879  000AF0  0EFF               	movlw	255
  2880  000AF2  20E2               	addwfc	fsr1h,w,c
  2881  000AF4  6EDA               	movwf	fsr2h,c
  2882  000AF6  50DF               	movf	indf2,w,c
  2883  000AF8  020C               	mulwf	(btemp+11)^0,c
  2884  000AFA  CFF3 FFF4          	movff	prodl,prodh
  2885  000AFE  6AF3               	clrf	243,c
  2886                           
  2887                           ;stkvar	_product @ sp[(-2)+0]
  2888  000B00  50E1               	movf	fsr1l,w,c
  2889  000B02  0FFE               	addlw	-2
  2890  000B04  6ED9               	movwf	fsr2l,c
  2891  000B06  50E2               	movf	fsr1h,w,c
  2892  000B08  6EDA               	movwf	fsr2h,c
  2893  000B0A  0EFF               	movlw	255
  2894  000B0C  22DA               	addwfc	fsr2h,f,c
  2895  000B0E  50F3               	movf	243,w,c
  2896  000B10  26DE               	addwf	postinc2,f,c
  2897  000B12  50F4               	movf	244,w,c
  2898  000B14  22DD               	addwfc	postdec2,f,c
  2899  000B16                     
  2900                           ;stkvar	_product @ sp[(-2)+0]
  2901  000B16  0EFE               	movlw	-2
  2902  000B18  CFE3 F001          	movff	plusw1,btemp
  2903  000B1C  0EFF               	movlw	-1
  2904  000B1E  CFE3 F002          	movff	plusw1,btemp+1
  2905  000B22                     
  2906                           ; ___wmul: autosize = 2, savesize = 0, parsavesize = 0, tempsize = 0 parsize = 4, argsiz
      +                          e = 4, vargsize = 0
  2907  000B22  0EFA               	movlw	250
  2908  000B24  26E1               	addwf	fsr1l,f,c
  2909  000B26  0EFF               	movlw	255
  2910  000B28  22E2               	addwfc	fsr1h,f,c
  2911  000B2A  0012               	return		;funcret
  2912  000B2C                     __end_of___wmul:
  2913                           	callstack 0
  2914  0000                     
  2915                           	psect	text19
  2916  000000                     __ptext19:
  2917                           	callstack 0
  2918  000000                     
  2919                           	psect	rparam
  2920  0000                     
  2921                           	psect	temp
  2922  000001                     btemp:
  2923                           	callstack 0
  2924  000001                     	ds	32
  2925  0000                     wtemp0	set	btemp
  2926  0000                     wtemp1	set	btemp+2
  2927  0000                     wtemp2	set	btemp+4
  2928  0000                     wtemp3	set	btemp+6
  2929  0000                     wtemp4	set	btemp+8
  2930  0000                     wtemp5	set	btemp+10
  2931  0000                     wtemp8	set	btemp+1
  2932  0000                     ttemp0	set	btemp
  2933  0000                     ttemp1	set	btemp+3
  2934  0000                     ttemp2	set	btemp+6
  2935  0000                     ttemp3	set	btemp+9
  2936  0000                     ttemp5	set	btemp+1
  2937  0000                     ttemp6	set	btemp+4
  2938  0000                     ttemp7	set	btemp+8
  2939  0000                     ltemp0	set	btemp
  2940  0000                     ltemp1	set	btemp+4
  2941  0000                     ltemp2	set	btemp+8
  2942  0000                     lltemp0	set	btemp
  2943  0000                     lltemp1	set	btemp+8
  2944  0000                     lltemp2	set	btemp+16
  2945  0000                     lltemp3	set	btemp+24
  2946                           
  2947                           	psect	idloc
  2948                           
  2949                           ;Config register IDLOC0 @ 0x200000
  2950                           ;	unspecified, using default values
  2951  200000                     	org	2097152
  2952  200000  FF                 	db	255
  2953                           
  2954                           ;Config register IDLOC1 @ 0x200001
  2955                           ;	unspecified, using default values
  2956  200001                     	org	2097153
  2957  200001  FF                 	db	255
  2958                           
  2959                           ;Config register IDLOC2 @ 0x200002
  2960                           ;	unspecified, using default values
  2961  200002                     	org	2097154
  2962  200002  FF                 	db	255
  2963                           
  2964                           ;Config register IDLOC3 @ 0x200003
  2965                           ;	unspecified, using default values
  2966  200003                     	org	2097155
  2967  200003  FF                 	db	255
  2968                           
  2969                           ;Config register IDLOC4 @ 0x200004
  2970                           ;	unspecified, using default values
  2971  200004                     	org	2097156
  2972  200004  FF                 	db	255
  2973                           
  2974                           ;Config register IDLOC5 @ 0x200005
  2975                           ;	unspecified, using default values
  2976  200005                     	org	2097157
  2977  200005  FF                 	db	255
  2978                           
  2979                           ;Config register IDLOC6 @ 0x200006
  2980                           ;	unspecified, using default values
  2981  200006                     	org	2097158
  2982  200006  FF                 	db	255
  2983                           
  2984                           ;Config register IDLOC7 @ 0x200007
  2985                           ;	unspecified, using default values
  2986  200007                     	org	2097159
  2987  200007  FF                 	db	255
  2988                           
  2989                           	psect	config
  2990                           
  2991                           ; Padding undefined space
  2992  300000                     	org	3145728
  2993  300000  FF                 	db	255
  2994                           
  2995                           ;Config register CONFIG1H @ 0x300001
  2996                           ;	Oscillator Selection bits
  2997                           ;	OSC = RCIO6, External RC oscillator, port function on RA6
  2998                           ;	Fail-Safe Clock Monitor Enable bit
  2999                           ;	FCMEN = OFF, Fail-Safe Clock Monitor disabled
  3000                           ;	Internal/External Oscillator Switchover bit
  3001                           ;	IESO = OFF, Oscillator Switchover mode disabled
  3002  300001                     	org	3145729
  3003  300001  07                 	db	7
  3004                           
  3005                           ;Config register CONFIG2L @ 0x300002
  3006                           ;	Power-up Timer Enable bit
  3007                           ;	PWRT = OFF, PWRT disabled
  3008                           ;	Brown-out Reset Enable bits
  3009                           ;	BOREN = SBORDIS, Brown-out Reset enabled in hardware only (SBOREN is disabled)
  3010                           ;	Brown Out Reset Voltage bits
  3011                           ;	BORV = 3, Minimum setting
  3012  300002                     	org	3145730
  3013  300002  1F                 	db	31
  3014                           
  3015                           ;Config register CONFIG2H @ 0x300003
  3016                           ;	Watchdog Timer Enable bit
  3017                           ;	WDT = OFF, WDT disabled (control is placed on the SWDTEN bit)
  3018                           ;	Watchdog Timer Postscale Select bits
  3019                           ;	WDTPS = 32768, 1:32768
  3020  300003                     	org	3145731
  3021  300003  1E                 	db	30
  3022                           
  3023                           ; Padding undefined space
  3024  300004                     	org	3145732
  3025  300004  FF                 	db	255
  3026                           
  3027                           ;Config register CONFIG3H @ 0x300005
  3028                           ;	CCP2 MUX bit
  3029                           ;	CCP2MX = PORTC, CCP2 input/output is multiplexed with RC1
  3030                           ;	PORTB A/D Enable bit
  3031                           ;	PBADEN = ON, PORTB<4:0> pins are configured as analog input channels on Reset
  3032                           ;	Low-Power Timer1 Oscillator Enable bit
  3033                           ;	LPT1OSC = OFF, Timer1 configured for higher power operation
  3034                           ;	MCLR Pin Enable bit
  3035                           ;	MCLRE = ON, MCLR pin enabled; RE3 input pin disabled
  3036  300005                     	org	3145733
  3037  300005  83                 	db	131
  3038                           
  3039                           ;Config register CONFIG4L @ 0x300006
  3040                           ;	Stack Full/Underflow Reset Enable bit
  3041                           ;	STVREN = ON, Stack full/underflow will cause Reset
  3042                           ;	Single-Supply ICSP Enable bit
  3043                           ;	LVP = ON, Single-Supply ICSP enabled
  3044                           ;	Extended Instruction Set Enable bit
  3045                           ;	XINST = OFF, Instruction set extension and Indexed Addressing mode disabled (Legacy mo
      +                          de)
  3046                           ;	Background Debugger Enable bit
  3047                           ;	DEBUG = 0x1, unprogrammed default
  3048  300006                     	org	3145734
  3049  300006  85                 	db	133
  3050                           
  3051                           ; Padding undefined space
  3052  300007                     	org	3145735
  3053  300007  FF                 	db	255
  3054                           
  3055                           ;Config register CONFIG5L @ 0x300008
  3056                           ;	Code Protection bit
  3057                           ;	CP0 = OFF, Block 0 (000800-001FFFh) not code-protected
  3058                           ;	Code Protection bit
  3059                           ;	CP1 = OFF, Block 1 (002000-003FFFh) not code-protected
  3060                           ;	Code Protection bit
  3061                           ;	CP2 = OFF, Block 2 (004000-005FFFh) not code-protected
  3062                           ;	Code Protection bit
  3063                           ;	CP3 = OFF, Block 3 (006000-007FFFh) not code-protected
  3064  300008                     	org	3145736
  3065  300008  0F                 	db	15
  3066                           
  3067                           ;Config register CONFIG5H @ 0x300009
  3068                           ;	Boot Block Code Protection bit
  3069                           ;	CPB = OFF, Boot block (000000-0007FFh) not code-protected
  3070                           ;	Data EEPROM Code Protection bit
  3071                           ;	CPD = OFF, Data EEPROM not code-protected
  3072  300009                     	org	3145737
  3073  300009  C0                 	db	192
  3074                           
  3075                           ;Config register CONFIG6L @ 0x30000A
  3076                           ;	Write Protection bit
  3077                           ;	WRT0 = OFF, Block 0 (000800-001FFFh) not write-protected
  3078                           ;	Write Protection bit
  3079                           ;	WRT1 = OFF, Block 1 (002000-003FFFh) not write-protected
  3080                           ;	Write Protection bit
  3081                           ;	WRT2 = OFF, Block 2 (004000-005FFFh) not write-protected
  3082                           ;	Write Protection bit
  3083                           ;	WRT3 = OFF, Block 3 (006000-007FFFh) not write-protected
  3084  30000A                     	org	3145738
  3085  30000A  0F                 	db	15
  3086                           
  3087                           ;Config register CONFIG6H @ 0x30000B
  3088                           ;	Configuration Register Write Protection bit
  3089                           ;	WRTC = OFF, Configuration registers (300000-3000FFh) not write-protected
  3090                           ;	Boot Block Write Protection bit
  3091                           ;	WRTB = OFF, Boot block (000000-0007FFh) not write-protected
  3092                           ;	Data EEPROM Write Protection bit
  3093                           ;	WRTD = OFF, Data EEPROM not write-protected
  3094  30000B                     	org	3145739
  3095  30000B  E0                 	db	224
  3096                           
  3097                           ;Config register CONFIG7L @ 0x30000C
  3098                           ;	Table Read Protection bit
  3099                           ;	EBTR0 = OFF, Block 0 (000800-001FFFh) not protected from table reads executed in other
      +                           blocks
  3100                           ;	Table Read Protection bit
  3101                           ;	EBTR1 = OFF, Block 1 (002000-003FFFh) not protected from table reads executed in other
      +                           blocks
  3102                           ;	Table Read Protection bit
  3103                           ;	EBTR2 = OFF, Block 2 (004000-005FFFh) not protected from table reads executed in other
      +                           blocks
  3104                           ;	Table Read Protection bit
  3105                           ;	EBTR3 = OFF, Block 3 (006000-007FFFh) not protected from table reads executed in other
      +                           blocks
  3106  30000C                     	org	3145740
  3107  30000C  0F                 	db	15
  3108                           
  3109                           ;Config register CONFIG7H @ 0x30000D
  3110                           ;	Boot Block Table Read Protection bit
  3111                           ;	EBTRB = OFF, Boot block (000000-0007FFh) not protected from table reads executed in ot
      +                          her blocks
  3112  30000D                     	org	3145741
  3113  30000D  40                 	db	64
  3114                           tosu	equ	0xFFF
  3115                           tosh	equ	0xFFE
  3116                           tosl	equ	0xFFD
  3117                           stkptr	equ	0xFFC
  3118                           pclatu	equ	0xFFB
  3119                           pclath	equ	0xFFA
  3120                           pcl	equ	0xFF9
  3121                           tblptru	equ	0xFF8
  3122                           tblptrh	equ	0xFF7
  3123                           tblptrl	equ	0xFF6
  3124                           tablat	equ	0xFF5
  3125                           prodh	equ	0xFF4
  3126                           prodl	equ	0xFF3
  3127                           indf0	equ	0xFEF
  3128                           postinc0	equ	0xFEE
  3129                           postdec0	equ	0xFED
  3130                           preinc0	equ	0xFEC
  3131                           plusw0	equ	0xFEB
  3132                           fsr0h	equ	0xFEA
  3133                           fsr0l	equ	0xFE9
  3134                           wreg	equ	0xFE8
  3135                           indf1	equ	0xFE7
  3136                           postinc1	equ	0xFE6
  3137                           postdec1	equ	0xFE5
  3138                           preinc1	equ	0xFE4
  3139                           plusw1	equ	0xFE3
  3140                           fsr1h	equ	0xFE2
  3141                           fsr1l	equ	0xFE1
  3142                           bsr	equ	0xFE0
  3143                           indf2	equ	0xFDF
  3144                           postinc2	equ	0xFDE
  3145                           postdec2	equ	0xFDD
  3146                           preinc2	equ	0xFDC
  3147                           plusw2	equ	0xFDB
  3148                           fsr2h	equ	0xFDA
  3149                           fsr2l	equ	0xFD9
  3150                           status	equ	0xFD8

Data Sizes:
    Strings     0
    Constant    0
    Data        2
    BSS         868
    Persistent  0
    Stack       0

Auto Spaces:
    Space          Size  Autos    Used
    COMRAM           95     16      28
    BANK0           128      0     112
    BANK1           256      0     234
    BANK2           256      0       0
    BANK3           256      0       0
    BANK4           256      0       0
    BANK5           256      0       0

Pointer List with Targets:

    p.buffer	PTR unsigned char  size(2) Largest target is 512
		 -> _uDynamicHeap(BIGRAM[512]), NULL(NULL[0]), 

    p.buffer	PTR unsigned char  size(2) Largest target is 512
		 -> _uDynamicHeap(BIGRAM[512]), NULL(NULL[0]), 

    S1092pipe$buffer	PTR unsigned char  size(2) Largest target is 512
		 -> _uDynamicHeap(BIGRAM[512]), NULL(NULL[0]), 

    p.buffer	PTR unsigned char  size(2) Largest target is 512
		 -> _uDynamicHeap(BIGRAM[512]), NULL(NULL[0]), 

    sp__SRAMalloc	PTR unsigned char  size(2) Largest target is 512
		 -> _uDynamicHeap(BIGRAM[512]), NULL(NULL[0]), 

    func	PTR FTN()void  size(2) Largest target is 1
		 -> task_idle(), check_wash(), check_ironing(), 

    new_task.task_func	PTR FTN()void  size(2) Largest target is 1
		 -> task_idle(), check_wash(), check_ironing(), 

    S34tcb$task_func	PTR FTN()void  size(2) Largest target is 1
		 -> task_idle(), check_wash(), check_ironing(), 

    f_aptos.ready_queue.task_func	PTR FTN()void  size(2) Largest target is 1
		 -> task_idle(), check_wash(), check_ironing(), 


Critical Paths under _main in COMRAM

    None.

Critical Paths under _task_idle in COMRAM

    None.

Critical Paths under _check_wash in COMRAM

    None.

Critical Paths under _check_ironing in COMRAM

    None.

Critical Paths under _task_idle in COMRAM

    None.

Critical Paths under _check_wash in COMRAM

    None.

Critical Paths under _check_ironing in COMRAM

    None.

Critical Paths under _IRQ_Timer0 in COMRAM

    None.

Critical Paths under _main in BANK0

    None.

Critical Paths under _task_idle in BANK0

    None.

Critical Paths under _check_wash in BANK0

    None.

Critical Paths under _check_ironing in BANK0

    None.

Critical Paths under _task_idle in BANK0

    None.

Critical Paths under _check_wash in BANK0

    None.

Critical Paths under _check_ironing in BANK0

    None.

Critical Paths under _IRQ_Timer0 in BANK0

    None.

Critical Paths under _main in BANK1

    None.

Critical Paths under _task_idle in BANK1

    None.

Critical Paths under _check_wash in BANK1

    None.

Critical Paths under _check_ironing in BANK1

    None.

Critical Paths under _task_idle in BANK1

    None.

Critical Paths under _check_wash in BANK1

    None.

Critical Paths under _check_ironing in BANK1

    None.

Critical Paths under _IRQ_Timer0 in BANK1

    None.

Critical Paths under _main in BANK2

    None.

Critical Paths under _task_idle in BANK2

    None.

Critical Paths under _check_wash in BANK2

    None.

Critical Paths under _check_ironing in BANK2

    None.

Critical Paths under _task_idle in BANK2

    None.

Critical Paths under _check_wash in BANK2

    None.

Critical Paths under _check_ironing in BANK2

    None.

Critical Paths under _IRQ_Timer0 in BANK2

    None.

Critical Paths under _main in BANK3

    None.

Critical Paths under _task_idle in BANK3

    None.

Critical Paths under _check_wash in BANK3

    None.

Critical Paths under _check_ironing in BANK3

    None.

Critical Paths under _task_idle in BANK3

    None.

Critical Paths under _check_wash in BANK3

    None.

Critical Paths under _check_ironing in BANK3

    None.

Critical Paths under _IRQ_Timer0 in BANK3

    None.

Critical Paths under _main in BANK4

    None.

Critical Paths under _task_idle in BANK4

    None.

Critical Paths under _check_wash in BANK4

    None.

Critical Paths under _check_ironing in BANK4

    None.

Critical Paths under _task_idle in BANK4

    None.

Critical Paths under _check_wash in BANK4

    None.

Critical Paths under _check_ironing in BANK4

    None.

Critical Paths under _IRQ_Timer0 in BANK4

    None.

Critical Paths under _main in BANK5

    None.

Critical Paths under _task_idle in BANK5

    None.

Critical Paths under _check_wash in BANK5

    None.

Critical Paths under _check_ironing in BANK5

    None.

Critical Paths under _task_idle in BANK5

    None.

Critical Paths under _check_wash in BANK5

    None.

Critical Paths under _check_ironing in BANK5

    None.

Critical Paths under _IRQ_Timer0 in BANK5

    None.

Call Graph Tables:

 ---------------------------------------------------------------------------------
 (Depth) Function   	        Calls       Base Space   Used Autos Params    Refs
 ---------------------------------------------------------------------------------
 (0) _main                                                 0     0      0     210
                          _os_config
                           _os_start
                        _task_create
 ---------------------------------------------------------------------------------
 (1) _os_start                                             0     0      0       0
 ---------------------------------------------------------------------------------
 (1) _os_config                                            0     0      0     105
                       _config_tasks
                      _setup_timer_0
                        _task_create
 ---------------------------------------------------------------------------------
 (1) _task_create                                         50    46      4     105
 ---------------------------------------------------------------------------------
 (2) _setup_timer_0                                        0     0      0       0
 ---------------------------------------------------------------------------------
 (2) _config_tasks                                         0     0      0       0
 ---------------------------------------------------------------------------------
 (Depth) Function   	        Calls       Base Space   Used Autos Params    Refs
 ---------------------------------------------------------------------------------
 (3) _task_idle                                            0     0      0       0
 ---------------------------------------------------------------------------------
 (Depth) Function   	        Calls       Base Space   Used Autos Params    Refs
 ---------------------------------------------------------------------------------
 (3) _check_wash                                           8     8      0      90
                           _run_wash
 ---------------------------------------------------------------------------------
 (4) _run_wash                                             0     0      0       0
 ---------------------------------------------------------------------------------
 (Depth) Function   	        Calls       Base Space   Used Autos Params    Refs
 ---------------------------------------------------------------------------------
 (3) _check_ironing                                        0     0      0      15
                        _run_ironing
 ---------------------------------------------------------------------------------
 (4) _run_ironing                                          6     0      6      15
 ---------------------------------------------------------------------------------
 (Depth) Function   	        Calls       Base Space   Used Autos Params    Refs
 ---------------------------------------------------------------------------------
 (3) _task_idle                                            0     0      0       0
 ---------------------------------------------------------------------------------
 (Depth) Function   	        Calls       Base Space   Used Autos Params    Refs
 ---------------------------------------------------------------------------------
 (3) _check_wash                                           8     8      0      90
                           _run_wash
 ---------------------------------------------------------------------------------
 (4) _run_wash                                             0     0      0       0
 ---------------------------------------------------------------------------------
 (Depth) Function   	        Calls       Base Space   Used Autos Params    Refs
 ---------------------------------------------------------------------------------
 (3) _check_ironing                                        0     0      0      15
                        _run_ironing
 ---------------------------------------------------------------------------------
 (4) _run_ironing                                          6     0      6      15
 ---------------------------------------------------------------------------------
 (Depth) Function   	        Calls       Base Space   Used Autos Params    Refs
 ---------------------------------------------------------------------------------
 (5) _IRQ_Timer0                                          16    16      0     435
                                              0 COMRAM    16    16      0
                             ___wmul
                      _color_clothes
                     _controle_delay
                          _scheduler
                      _white_clothes
 ---------------------------------------------------------------------------------
 (6) _white_clothes                                        6     6      0      45
 ---------------------------------------------------------------------------------
 (6) _scheduler                                            0     0      0     150
                       _rr_scheduler
 ---------------------------------------------------------------------------------
 (7) _rr_scheduler                                         2     2      0     150
                            ___lwmod
 ---------------------------------------------------------------------------------
 (8) ___lwmod                                              5     1      4     105
 ---------------------------------------------------------------------------------
 (6) _controle_delay                                       4     4      0      90
 ---------------------------------------------------------------------------------
 (6) _color_clothes                                        6     6      0      45
 ---------------------------------------------------------------------------------
 (6) ___wmul                                               6     2      4     105
 ---------------------------------------------------------------------------------
 Estimated maximum stack depth 8
 ---------------------------------------------------------------------------------

 Call Graph Graphs:

 _main (ROOT)
   _os_config
     _config_tasks
     _setup_timer_0
     _task_create
   _os_start
   _task_create

 _task_idle (ROOT)

 _check_wash (ROOT)
   _run_wash

 _check_ironing (ROOT)
   _run_ironing

 _task_idle (ROOT)

 _check_wash (ROOT)
   _run_wash

 _check_ironing (ROOT)
   _run_ironing

 _IRQ_Timer0 (ROOT)
   ___wmul
   _color_clothes
   _controle_delay
   _scheduler
     _rr_scheduler
       ___lwmod
   _white_clothes

 Address spaces:
Name               Size   Autos  Total    Cost      Usage
BIGRAM             5FF      0     200      17       33.4%
EEDATA             100      0       0       0        0.0%
BITBANK5           100      0       0      16        0.0%
BANK5              100      0       0      14        0.0%
BITBANK4           100      0       0      12        0.0%
BANK4              100      0       0      13        0.0%
BITBANK3           100      0       0      10        0.0%
BANK3              100      0       0      11        0.0%
BITBANK2           100      0       0       8        0.0%
BANK2              100      0       0       9        0.0%
BITBANK1           100      0       0       6        0.0%
BANK1              100      0      EA       7       91.4%
BITBANK0            80      0       0       4        0.0%
BANK0               80      0      70       5       87.5%
BITCOMRAM           5F      0       0       0        0.0%
COMRAM              5F     10      1C       1       29.5%
BITSFR               0      0       0     200        0.0%
SFR                  0      0       0     200        0.0%
STACK                0      0       0       2        0.0%
NULL                 0      0       0       0        0.0%
ABS                  0      0     176      15        0.0%
DATA                 0      0     376       3        0.0%
CODE                 0      0       0       0        0.0%


Microchip Technology PIC18 Macro Assembler V2.20 build 20200408173844 
Symbol Table                                                                                   Tue Dec 15 14:23:08 2020

                     l23 0DA6                       l24 0DA6                       l82 08A2  
                     l91 0DD6                       l92 0DD6                       l85 0DC8  
                     l88 0D74                       u51 0896  __size_of_controle_delay 015E  
                    l140 0DD4                      l143 0BC8                      l250 06E2  
                    l242 0DBC                      l171 08AC                      l155 040E  
                    l149 0A02                      l181 0BB6                      l190 0DE0  
                    l168 09F8                      l195 0CD8                      l389 0B22  
                    l897 07CA                      _BSR 000FE0                      _TOS 000FFD  
                    wreg 000FE8              _run_ironing 0B2C             fp__task_idle 0000  
                   l1100 0DB6                     l1110 0C92                     l1102 0DBA  
                   l1112 0CCC                     l1200 0BB2                     l1104 0DCA  
                   l1120 0D5C                     l1130 0BC8                     l1210 0652  
                   l1202 0596                     l1106 0C54                     l1122 0D70  
                   l1140 0C3E                     l1132 0BD0                     l1212 0680  
                   l1204 05AA                     l1108 0C60                     l1116 0D34  
                   l1124 0DBE                     l1222 0A9A                     l1142 0C40  
                   l1134 0BE4                     l1206 05E6                     l1214 0694  
                   l1070 0734                     l1062 06EE                     l1126 0DDC  
                   l1150 0A3E                     l1118 0D58                     l1224 0AB2  
                   l1136 0BF8                     l1208 0616                     l1216 06B2  
                   l1072 0744                     l1064 0708                     l1080 07BE  
                   l1152 0A7E                     l1144 0A02                     l1160 096C  
                   l1240 0434                     l1232 0D76                     l1226 0AE4  
                   l1138 0C38                     l1218 06D6                     l1074 0772  
                   l1066 0712                     l1154 0A84                     l1146 0A16  
                   l1170 09A6                     l1162 0972                     l1250 04AE  
                   l1242 0448                     l1090 0828                     l1234 0DA2  
                   l1228 0B16                     l1076 0796                     l1068 0730  
                   l1156 0A86                     l1148 0A2A                     l1180 09EC  
                   l1172 09AE                     l1164 0976                     l1260 051C  
                   l1252 04CC                     l1236 040E                     l1092 084A  
                   l1084 07DC                     l1078 07A0                     l1190 0B44  
                   l1182 09EE                     l1174 09BA                     l1166 098C  
                   l1158 0956                     l1270 057C                     l1262 053E  
                   l1254 04F2                     l1238 0420                     l1094 085E  
                   l1086 07F6                     l1192 0B48                     l1280 08F6  
                   l1272 08AC                     l1184 09F4                     l1168 09A0  
                   l1176 09BE                     l1264 0552                     l1256 04FA  
                   l1248 0450                     l1096 089E                     l1088 0818  
                   l1194 0B5E                     l1186 0B2C                     l1290 093C  
                   l1282 08FA                     l1274 08BE                     l1178 09D4  
                   l1258 0514                     l1266 0556                     l1098 0DAE  
                   l1196 0B68                     l1188 0B42                     l1284 0902  
                   l1276 08D2                     l1268 0568                     l1198 0B72  
                   l1278 08E4                     l1286 0916                     l1288 092A  
                   _WREG 000FE8                     u1_40 0708                     u1_41 0704  
                   u2_40 0744                     u2_41 0740                     u3_40 0772  
                   u3_41 076E                     u4_40 07BE                     u4_41 07BA  
                   u6_40 0CCC                     u6_41 0CC8                     u7_41 0C30  
                   u8_41 0A76                     u9_20 096C                     u9_21 0968  
  __end_of_check_ironing 0956            _white_clothes 09FA                     _main 0D76  
                   fsr0h 000FEA                     fsr1h 000FE2                     fsr2h 000FDA  
                   fsr0l 000FE9                     indf2 000FDF                     fsr1l 000FE1  
                   fsr2l 000FD9                     btemp 0001                     prodh 000FF4  
                   prodl 000FF3                     start 000C             ___param_bank 000000  
            ?_IRQ_Timer0 0021          __end_of___lwmod 07D4                    i2l255 038E  
                  i2l265 0380                    i2l267 0326                    i2l259 016C  
                  i2l286 03CC                    u10_20 098C                    u10_21 0988  
                  u11_20 09A0                    u11_21 099C                    u12_20 09D4  
                  u20_20 0420                    u12_21 09D0                    u20_21 041C  
                  u13_20 09EC                    u21_20 0434                    u13_21 09E8  
                  u21_21 0430                    u14_20 0B42                    u30_20 08D2  
                  u14_21 0B3E                    u30_21 08CE                    u15_20 0B5E  
                  u31_20 08E4                    u15_21 0B5A                    u31_21 08E0  
                  u23_21 04A6                    u24_20 04F2                    u16_21 0BAA  
                  u32_21 08EE                    u24_21 04EE                    u33_21 0908  
                  u25_21 050C                    u17_40 05E6                    _TMR0L 000FD6  
                  u17_41 05E2                    u34_20 092A                    u26_20 052C  
                  u34_21 0926                    u26_21 0526                    u18_40 0652  
                  u18_41 064E                    u26_26 052E                    u35_20 093C  
                  u27_20 0568                    u35_21 0938                    u27_21 0564  
                  u19_40 06D6                    u19_41 06D2                    u28_20 057C  
                  u36_21 0942                    u28_21 0578                    u29_20 08BE  
                  u29_21 08BA                    _index 0039                    tablat 000FF5  
                  ltemp0 0001                    ltemp1 0005                    ltemp2 0009  
                  plusw0 000FEB                    plusw1 000FE3                    plusw2 000FDB  
                  ttemp0 0001                    ttemp1 0004                    ttemp2 0007  
                  ttemp3 000A                    ttemp5 0002                    ttemp6 0005  
                  ttemp7 0009                    status 000FD8                    wtemp0 0001  
                  wtemp1 0003                    wtemp2 0005                    wtemp3 0007  
                  wtemp4 0009                    wtemp5 000B                    wtemp8 0002  
        __initialization 0CDE             __end_of_main 0DAE            __activetblptr 000000  
                 i2l1300 007E                   i2l1302 00B0                   i2l1310 01C2  
                 i2l1320 0320                   i2l1312 01E6                   i2l1304 00B4  
                 i2l1322 0328                   i2l1314 01F2                   i2l1306 01A8  
                 i2l1330 038A                   i2l1324 0368                   i2l1316 0224  
                 i2l1308 01AE                   i2l1326 036E                   i2l1318 025A  
                 i2l1328 0382                   i2l1370 03C8                   i2l1362 039C  
                 i2l1364 039E                   i2l1292 0052                   i2l1366 03A2  
                 i2l1294 0062                   i2l1368 03B0                   i2l1296 0066  
                 i2l1298 006C      __size_of_IRQ_Timer0 03FE                   _STATUS 000FD8  
                 _STKPTR 000FFC                   ___wmul 0A96           _controle_delay 058E  
                 clear_0 0CFE                   clear_1 0D10                   clear_2 0D1C  
                 clear_3 0D28             __pdataCOMRAM 003B         __end_of_os_start 0DCA  
                 lltemp0 0001                   lltemp1 0009                   lltemp2 0011  
                 lltemp3 0019     __end_of_config_tasks 0DD6                   tblptrh 000FF7  
                 tblptrl 000FF6                   tblptru 000FF8         __end_of_run_wash 09FA  
             __accesstop 0080  __end_of__initialization 0D2E            ___rparam_used 000001  
         __pcstackCOMRAM 0021               ___inthi_sp 049C   __end_of_controle_delay 06EC  
             __pbssBANK0 0080               __pbssBANK1 0100               _check_wash 0406  
          __uDynamicHeap 01EA       __size_of_scheduler 0006             ??_IRQ_Timer0 0021  
     __size_of_os_config 0042       __size_of_task_idle 0006                  i2u40_40 01BE  
                i2u40_41 01BA                  i2u41_40 0224                  i2u41_41 0220  
                i2u42_40 0380                  i2u42_41 037C                  i2u43_40 039C  
                i2u43_41 0398                  i2u44_40 03B0                  i2u44_41 03AC  
                i2u45_40 03C8                  i2u37_40 0062                  i2u45_41 03C4  
                i2u37_41 005E                  i2u38_40 007E                  i2u38_41 007A  
                i2u39_40 00B0                  i2u39_41 00AC       __end_of_IRQ_Timer0 0406  
                __Hparam 0000                  __Lparam 0000     __size_of_task_create 00D8  
        __size_of___wmul 0096                  ___lwmod 06EC                  _f_aptos 0100  
                __pcinit 0CDE    __size_of_config_tasks 000C                  __ramtop 0600  
                __ptext0 0D76                  __ptext1 0DBE                  __ptext2 0D34  
                __ptext3 07D4                  __ptext4 0DAE                  __ptext5 0DCA  
                __ptext6 0DD6                  __ptext7 0406                  __ptext8 0956  
                __ptext9 08AC   __size_of_check_ironing 00AA         fp__check_ironing 0000  
              _T0CONbits 000FD5                  _quantum 003B        __end_of_scheduler 0DE2  
         __pintcode_body 0014     end_of_initialization 0D2E        __end_of_os_config 0D76  
      __end_of_task_idle 0DDC                  int_func 0014    __end_of_setup_timer_0 0DBE  
           _config_tasks 0DCA                  postdec0 000FED                  postdec1 000FE5  
                postdec2 000FDD                  postinc0 000FEE                  postinc1 000FE6  
                postinc2 000FDE                _PORTCbits 000F82                _PORTDbits 000F83  
              _TRISBbits 000F93                _TRISDbits 000F95     __size_of_run_ironing 0094  
          _check_ironing 08AC    __end_of_color_clothes 0C50           __end_of___wmul 0B2C  
          __pidataCOMRAM 0DE2      __size_of_check_wash 0188      start_initialization 0CDE  
  __end_of_white_clothes 0A96              __pbssBIGRAM 01EA              __pbssCOMRAM 0031  
              _f_clothes 0080                _i_machine 0031                __pintcode 0008  
      __size_of_os_start 000C        __size_of_run_wash 00A4     __end_of_rr_scheduler 0CDE  
              _scheduler 0DDC                _os_config 0D34                _w_machine 0035  
              _task_idle 0DD6       __end_of_check_wash 058E              _INTCON3bits 000FF0  
               __Hrparam 0000                 __Lrparam 0000      __end_of_task_create 08AC  
       __size_of___lwmod 00E8   __size_of_setup_timer_0 0010                 __ptext10 0B2C  
               __ptext12 09FA                 __ptext13 0DDC                 __ptext14 0C50  
               __ptext15 06EC                 __ptext16 058E                 __ptext17 0BC0  
               __ptext18 0A96                 __ptext19 0000            __size_of_main 0038  
               us22_2999 043E                 _os_start 0DBE                 _run_wash 0956  
  __size_of_rr_scheduler 008E               _INTCONbits 000FF2   __size_of_color_clothes 0090  
               intlevel1 0000                 intlevel2 0000      __end_of_run_ironing 0BC0  
            _task_create 07D4            fp__check_wash 0000            _setup_timer_0 0DAE  
           _rr_scheduler 0C50               _IRQ_Timer0 0008   __size_of_white_clothes 009C  
          _color_clothes 0BC0  
