

Microchip MPLAB XC8 Assembler V2.20 build 20200408173844 
                                                                                               Sat Dec 05 20:48:54 2020

Microchip MPLAB XC8 C Compiler v2.20 (Free license) build 20200408173844 Og1 
     1                           	processor	18F4520
     2                           	fnconf	rparam,??,?,0
     3                           	pagewidth 120
     4                           	opt	flic
     5                           	psect	idataCOMRAM,global,class=CODE,delta=1,noexec
     6                           	psect	cinit,global,reloc=2,class=CODE,delta=1
     7                           	psect	bssCOMRAM,global,class=COMRAM,space=1,delta=1,lowdata,noexec
     8                           	psect	dataCOMRAM,global,class=COMRAM,space=1,delta=1,lowdata,noexec
     9                           	psect	bssBANK1,global,class=BANK1,space=1,delta=1,lowdata,noexec
    10                           	psect	bssBIGRAM,global,class=BIGRAM,space=1,delta=1,lowdata,noexec
    11                           	psect	cstackCOMRAM,global,class=COMRAM,space=1,delta=1,lowdata,noexec
    12                           	psect	text0,global,reloc=2,class=CODE,delta=1
    13                           	psect	text1,global,reloc=2,class=CODE,delta=1
    14                           	psect	text2,global,reloc=2,class=CODE,delta=1
    15                           	psect	text3,global,reloc=2,class=CODE,delta=1
    16                           	psect	text4,global,reloc=2,class=CODE,delta=1
    17                           	psect	text5,global,reloc=2,class=CODE,delta=1
    18                           	psect	text6,global,reloc=2,class=CODE,delta=1
    19                           	psect	text7,global,reloc=2,class=CODE,delta=1
    20                           	psect	text8,global,reloc=2,class=CODE,delta=1
    21                           	psect	text9,global,reloc=2,class=CODE,delta=1
    22                           	psect	intcode,global,reloc=2,class=CODE,delta=1
    23                           	psect	intcode_body,global,reloc=2,class=CODE,delta=1
    24                           	psect	text11,global,reloc=2,class=CODE,delta=1
    25                           	psect	text12,global,reloc=2,class=CODE,delta=1
    26                           	psect	text13,global,reloc=2,class=CODE,delta=1,group=1
    27                           	psect	text14,global,reloc=2,class=CODE,delta=1
    28                           	psect	text15,global,reloc=2,class=CODE,delta=1,group=1
    29                           	psect	intsave_regs,global,class=BIGRAM,space=1,delta=1,noexec
    30                           	psect	text16,global,reloc=2,class=CODE,delta=1,group=1
    31                           	psect	rparam,global,class=COMRAM,space=1,delta=1,noexec
    32                           	psect	temp,global,ovrld,common,class=COMRAM,space=1,delta=1
    33                           	psect	idloc,global,abs,ovrld,class=IDLOC,space=5,delta=1,noexec
    34                           	psect	config,global,abs,ovrld,class=CONFIG,space=4,delta=1,noexec
    35  0000                     
    36                           ; Version 2.20
    37                           ; Generated 12/02/2020 GMT
    38                           ; 
    39                           ; Copyright © 2020, Microchip Technology Inc. and its subsidiaries ("Microchip")
    40                           ; All rights reserved.
    41                           ; 
    42                           ; This software is developed by Microchip Technology Inc. and its subsidiaries ("Microch
      +                          ip").
    43                           ; 
    44                           ; Redistribution and use in source and binary forms, with or without modification, are
    45                           ; permitted provided that the following conditions are met:
    46                           ; 
    47                           ;     1. Redistributions of source code must retain the above copyright notice, this lis
      +                          t of
    48                           ;        conditions and the following disclaimer.
    49                           ; 
    50                           ;     2. Redistributions in binary form must reproduce the above copyright notice, this 
      +                          list
    51                           ;        of conditions and the following disclaimer in the documentation and/or other
    52                           ;        materials provided with the distribution.
    53                           ; 
    54                           ;     3. Microchip's name may not be used to endorse or promote products derived from th
      +                          is
    55                           ;        software without specific prior written permission.
    56                           ; 
    57                           ; THIS SOFTWARE IS PROVIDED BY MICROCHIP "AS IS" AND ANY EXPRESS OR IMPLIED WARRANTIES,
    58                           ; INCLUDING, BUT NOT LIMITED TO, THE IMPLIED WARRANTIES OF MERCHANTABILITY AND FITNESS F
      +                          OR
    59                           ; PURPOSE ARE DISCLAIMED.  IN NO EVENT SHALL MICROCHIP BE LIABLE FOR ANY DIRECT, INDIREC
      +                          T,
    60                           ; INCIDENTAL, SPECIAL, EXEMPLARY, OR CONSEQUENTIAL DAMAGES (INCLUDING BUT NOT LIMITED TO
    61                           ; PROCUREMENT OF SUBSTITUTE GOODS OR SERVICES; LOSS OF USE, DATA OR PROFITS; OR BUSINESS
    62                           ; INTERRUPTION) HOWSOEVER CAUSED AND ON ANY THEORY OF LIABILITY, WHETHER IN CONTRACT, ST
      +                          RICT
    63                           ; LIABILITY, OR TORT (INCLUDING NEGLIGENCE OR OTHERWISE) ARISING IN ANY WAY OUT OF THE U
      +                          SE OF
    64                           ; THIS SOFTWARE, EVEN IF ADVISED OF THE POSSIBILITY OF SUCH DAMAGE.
    65                           ; 
    66                           ; 
    67                           ; Code-generator required, PIC18F4520 Definitions
    68                           ; 
    69                           ; SFR Addresses
    70  0000                     
    71 ;; Function _check_ironing is unused but had its address taken
    72  0000                     
    73 ;;_new_task	offset	0
    74 ;;_prior	offset=-2 (param)
    75 ;;_func	offset=-4 (param)
    76 ;;_clothes	offset	0
    77 ;;_clothes	offset	6
    78 ;;_i	offset	0
    79 ;;_next_clothes	offset	2
    80 ;;_clothes_washing	offset=-6 (param)
    81 ;;_next_task	offset	0
    82 ;;_counter	offset	0
    83 ;;_dividend	offset=-2 (param)
    84 ;;_divisor	offset=-4 (param)
    85 ;;_i	offset	0
    86 ;;_flag	offset	2
    87 ;;_product	offset	0
    88 ;;_multiplier	offset=-2 (param)
    89 ;;_multiplicand	offset=-4 (param)
    90                           
    91                           	psect	idataCOMRAM
    92  000C2C                     __pidataCOMRAM:
    93                           	callstack 0
    94                           
    95                           ;initializer for _quantum
    96  000C2C  000C               	dw	12
    97  0000                     _TOS	set	4093
    98  0000                     _TMR0L	set	4054
    99  0000                     _TRISDbits	set	3989
   100  0000                     _PORTDbits	set	3971
   101  0000                     _T0CONbits	set	4053
   102  0000                     _STKPTR	set	4092
   103  0000                     _STATUS	set	4056
   104  0000                     _BSR	set	4064
   105  0000                     _WREG	set	4072
   106  0000                     _INTCONbits	set	4082
   107                           
   108                           ; #config settings
   109                           
   110                           	psect	cinit
   111  000B2A                     __pcinit:
   112                           	callstack 0
   113  000B2A                     start_initialization:
   114                           	callstack 0
   115  000B2A                     __initialization:
   116                           	callstack 0
   117                           
   118                           ; Initialize objects allocated to COMRAM (2 bytes)
   119                           ; load TBLPTR registers with __pidataCOMRAM
   120  000B2A  0E2C               	movlw	low __pidataCOMRAM
   121  000B2C  6EF6               	movwf	tblptrl,c
   122  000B2E  0E0C               	movlw	high __pidataCOMRAM
   123  000B30  6EF7               	movwf	tblptrh,c
   124  000B32  0E00               	movlw	low (__pidataCOMRAM shr (0+16))
   125  000B34  6EF8               	movwf	tblptru,c
   126  000B36  0009               	tblrd		*+	;fetch initializer
   127  000B38  CFF5 F063          	movff	tablat,__pdataCOMRAM
   128  000B3C  0009               	tblrd		*+	;fetch initializer
   129  000B3E  CFF5 F064          	movff	tablat,__pdataCOMRAM+1
   130                           
   131                           ; Clear objects allocated to BIGRAM (512 bytes)
   132  000B42  EE01  F0EA         	lfsr	0,__pbssBIGRAM
   133  000B46  EE22 F000          	lfsr	2,512
   134  000B4A                     clear_0:
   135  000B4A  6AEE               	clrf	postinc0,c
   136  000B4C  50DD               	movf	postdec2,w,c
   137  000B4E  50D9               	movf	fsr2l,w,c
   138  000B50  E1FC               	bnz	clear_0
   139  000B52  50DA               	movf	fsr2h,w,c
   140  000B54  E1FA               	bnz	clear_0
   141                           
   142                           ; Clear objects allocated to BANK1 (234 bytes)
   143  000B56  EE01  F000         	lfsr	0,__pbssBANK1
   144  000B5A  0EEA               	movlw	234
   145  000B5C                     clear_1:
   146  000B5C  6AEE               	clrf	postinc0,c
   147  000B5E  06E8               	decf	wreg,f,c
   148  000B60  E1FD               	bnz	clear_1
   149                           
   150                           ; Clear objects allocated to COMRAM (52 bytes)
   151  000B62  EE00  F001         	lfsr	0,__pbssCOMRAM
   152  000B66  0E34               	movlw	52
   153  000B68                     clear_2:
   154  000B68  6AEE               	clrf	postinc0,c
   155  000B6A  06E8               	decf	wreg,f,c
   156  000B6C  E1FD               	bnz	clear_2
   157  000B6E                     end_of_initialization:
   158                           	callstack 0
   159  000B6E                     __end_of__initialization:
   160                           	callstack 0
   161  000B6E  0100               	movlb	0
   162  000B70  EF6B  F005         	goto	_main	;jump to C main() function
   163                           
   164                           	psect	bssCOMRAM
   165  000001                     __pbssCOMRAM:
   166                           	callstack 0
   167  000001                     _f_clothes:
   168                           	callstack 0
   169  000001                     	ds	46
   170  00002F                     _flag_wash:
   171                           	callstack 0
   172  00002F                     	ds	2
   173  000031                     _counter_wash:
   174                           	callstack 0
   175  000031                     	ds	2
   176  000033                     _index:
   177                           	callstack 0
   178  000033                     	ds	2
   179                           
   180                           	psect	dataCOMRAM
   181  000063                     __pdataCOMRAM:
   182                           	callstack 0
   183  000063                     _quantum:
   184                           	callstack 0
   185  000063                     	ds	2
   186                           
   187                           	psect	bssBANK1
   188  000100                     __pbssBANK1:
   189                           	callstack 0
   190  000100                     _f_aptos:
   191                           	callstack 0
   192  000100                     	ds	234
   193                           
   194                           	psect	bssBIGRAM
   195  0001EA                     __pbssBIGRAM:
   196                           	callstack 0
   197  0001EA                     __uDynamicHeap:
   198                           	callstack 0
   199  0001EA                     	ds	512
   200                           
   201                           	psect	cstackCOMRAM
   202  000055                     __pcstackCOMRAM:
   203                           	callstack 0
   204  000055                     ??_IRQ_Timer0:
   205                           
   206                           ; 1 bytes @ 0x0
   207  000055                     	ds	14
   208                           
   209 ;;
   210 ;;Main: autosize = 0, tempsize = 0, incstack = 0, save=0
   211 ;;
   212 ;; *************** function _main *****************
   213 ;; Defined at:
   214 ;;		line 18 in file "main.c"
   215 ;; Parameters:    Size  Location     Type
   216 ;;		None
   217 ;; Auto vars:     Size  Location     Type
   218 ;;		None
   219 ;; Return value:  Size  Location     Type
   220 ;;                  1  [STACK] void 
   221 ;; Registers used:
   222 ;;		wreg, fsr0l, fsr0h, fsr1l, fsr1h, fsr2l, fsr2h, status,2, status,0, btemp+8, btemp+9, btemp+10, btemp+11, prodl, pro
      +dh
   223 ;; Tracked objects:
   224 ;;		On entry : 0/0
   225 ;;		On exit  : 0/0
   226 ;;		Unchanged: 0/0
   227 ;; Data sizes:     COMRAM   BANK0   BANK1   BANK2   BANK3   BANK4   BANK5
   228 ;;      Params:         0       0       0       0       0       0       0
   229 ;;      Locals:         0       0       0       0       0       0       0
   230 ;;      Temps:          0       0       0       0       0       0       0
   231 ;;      Totals:         0       0       0       0       0       0       0
   232 ;;Total ram usage:        0 bytes
   233 ;; Hardware stack levels required when called:    8
   234 ;; This function calls:
   235 ;;		_os_config
   236 ;;		_os_start
   237 ;;		_task_create
   238 ;; This function is called by:
   239 ;;		Startup code after reset
   240 ;; This function uses a reentrant model
   241 ;;
   242                           
   243                           	psect	text0
   244  000AD6                     __ptext0:
   245                           	callstack 0
   246  000AD6                     _main:
   247                           	callstack 23
   248  000AD6                     
   249                           ;main.c: 21:    os_config();
   250  000AD6  ECF0  F005         	call	_os_config	;wreg free
   251  000ADA                     
   252                           ;main.c: 22:    f_clothes.fila_size = 0;
   253  000ADA  6A13               	clrf	(_f_clothes+18)^0,c
   254  000ADC  6A14               	clrf	(_f_clothes+19)^0,c
   255  000ADE                     
   256                           ;main.c: 23:    f_clothes.clothes_finished_size = 0;
   257  000ADE  6A2D               	clrf	(_f_clothes+44)^0,c
   258  000AE0  6A2E               	clrf	(_f_clothes+45)^0,c
   259                           
   260                           ;main.c: 33:    task_create(3, &task_read_buttons);
   261  000AE2  0E8C               	movlw	low _task_read_buttons
   262  000AE4  6EE6               	movwf	postinc1,c
   263  000AE6  0E06               	movlw	high _task_read_buttons
   264  000AE8  6EE6               	movwf	postinc1,c
   265  000AEA  0E03               	movlw	3
   266  000AEC  6EE6               	movwf	postinc1,c
   267  000AEE  0E00               	movlw	0
   268  000AF0  6EE6               	movwf	postinc1,c
   269  000AF2  EC66  F004         	call	_task_create	;wreg free
   270                           
   271                           ;main.c: 34:    task_create(2, &check_wash);
   272  000AF6  0EB8               	movlw	low _check_wash
   273  000AF8  6EE6               	movwf	postinc1,c
   274  000AFA  0E03               	movlw	high _check_wash
   275  000AFC  6EE6               	movwf	postinc1,c
   276  000AFE  0E02               	movlw	2
   277  000B00  6EE6               	movwf	postinc1,c
   278  000B02  0E00               	movlw	0
   279  000B04  6EE6               	movwf	postinc1,c
   280  000B06  EC66  F004         	call	_task_create	;wreg free
   281                           
   282                           ;main.c: 35:    task_create(2, &check_ironing);
   283  000B0A  0E00               	movlw	0
   284  000B0C  6EE6               	movwf	postinc1,c
   285  000B0E  0E00               	movlw	0
   286  000B10  6EE6               	movwf	postinc1,c
   287  000B12  0E02               	movlw	2
   288  000B14  6EE6               	movwf	postinc1,c
   289  000B16  0E00               	movlw	0
   290  000B18  6EE6               	movwf	postinc1,c
   291  000B1A  EC66  F004         	call	_task_create	;wreg free
   292  000B1E                     
   293                           ; BSR set to: 1
   294                           ;main.c: 38:    os_start();
   295  000B1E  EC10  F006         	call	_os_start	;wreg free
   296  000B22                     l21:
   297  000B22  EF91  F005         	goto	l21
   298  000B26  EF06  F000         	goto	start
   299  000B2A                     __end_of_main:
   300                           	callstack 0
   301                           
   302 ;; *************** function _os_start *****************
   303 ;; Defined at:
   304 ;;		line 63 in file "kernel.c"
   305 ;; Parameters:    Size  Location     Type
   306 ;;		None
   307 ;; Auto vars:     Size  Location     Type
   308 ;;		None
   309 ;; Return value:  Size  Location     Type
   310 ;;                  1  [STACK] void 
   311 ;; Registers used:
   312 ;;		None
   313 ;; Tracked objects:
   314 ;;		On entry : 3F/1
   315 ;;		On exit  : 0/0
   316 ;;		Unchanged: 0/0
   317 ;; Data sizes:     COMRAM   BANK0   BANK1   BANK2   BANK3   BANK4   BANK5
   318 ;;      Params:         0       0       0       0       0       0       0
   319 ;;      Locals:         0       0       0       0       0       0       0
   320 ;;      Temps:          0       0       0       0       0       0       0
   321 ;;      Totals:         0       0       0       0       0       0       0
   322 ;;Total ram usage:        0 bytes
   323 ;; Hardware stack levels used:    1
   324 ;; Hardware stack levels required when called:    6
   325 ;; This function calls:
   326 ;;		Nothing
   327 ;; This function is called by:
   328 ;;		_main
   329 ;; This function uses a reentrant model
   330 ;;
   331                           
   332                           	psect	text1
   333  000C20                     __ptext1:
   334                           	callstack 0
   335  000C20                     _os_start:
   336                           	callstack 24
   337  000C20                     
   338                           ;kernel.c: 68:    INTCONbits.GIE = 1;
   339  000C20  8EF2               	bsf	242,7,c	;volatile
   340                           
   341                           ;kernel.c: 71:    T0CONbits.TMR0ON = 1;
   342  000C22  8ED5               	bsf	213,7,c	;volatile
   343  000C24                     
   344                           ; _os_start: autosize = 0, savesize = 0, parsavesize = 0, tempsize = 0 parsize = 0, args
      +                          ize = 0, vargsize = 0
   345  000C24  0012               	return		;funcret
   346  000C26                     __end_of_os_start:
   347                           	callstack 0
   348                           
   349 ;; *************** function _os_config *****************
   350 ;; Defined at:
   351 ;;		line 77 in file "kernel.c"
   352 ;; Parameters:    Size  Location     Type
   353 ;;		None
   354 ;; Auto vars:     Size  Location     Type
   355 ;;		None
   356 ;; Return value:  Size  Location     Type
   357 ;;                  1  [STACK] void 
   358 ;; Registers used:
   359 ;;		wreg, fsr0l, fsr0h, fsr1l, fsr1h, fsr2l, fsr2h, status,2, status,0, btemp+8, btemp+9, btemp+10, btemp+11, prodl, pro
      +dh
   360 ;; Tracked objects:
   361 ;;		On entry : 0/0
   362 ;;		On exit  : 0/0
   363 ;;		Unchanged: 0/0
   364 ;; Data sizes:     COMRAM   BANK0   BANK1   BANK2   BANK3   BANK4   BANK5
   365 ;;      Params:         0       0       0       0       0       0       0
   366 ;;      Locals:         0       0       0       0       0       0       0
   367 ;;      Temps:          0       0       0       0       0       0       0
   368 ;;      Totals:         0       0       0       0       0       0       0
   369 ;;Total ram usage:        0 bytes
   370 ;; Hardware stack levels used:    1
   371 ;; Hardware stack levels required when called:    7
   372 ;; This function calls:
   373 ;;		_config_tasks
   374 ;;		_setup_timer_0
   375 ;;		_task_create
   376 ;; This function is called by:
   377 ;;		_main
   378 ;; This function uses a reentrant model
   379 ;;
   380                           
   381                           	psect	text2
   382  000BE0                     __ptext2:
   383                           	callstack 0
   384  000BE0                     _os_config:
   385                           	callstack 23
   386  000BE0                     
   387                           ;kernel.c: 82:    f_aptos.task_running = 0;
   388  000BE0  0101               	movlb	1	; () banked
   389  000BE2  6BE8               	clrf	(_f_aptos+232)& (0+255),b
   390  000BE4  6BE9               	clrf	(_f_aptos+233)& (0+255),b
   391                           
   392                           ;kernel.c: 83:    f_aptos.ready_queue_size = 0;
   393  000BE6  6BE6               	clrf	(_f_aptos+230)& (0+255),b
   394  000BE8  6BE7               	clrf	(_f_aptos+231)& (0+255),b
   395  000BEA                     
   396                           ; BSR set to: 1
   397                           ;kernel.c: 86:    setup_timer_0();
   398  000BEA  EC04  F006         	call	_setup_timer_0	;wreg free
   399  000BEE                     
   400                           ;kernel.c: 89:    task_create(0, &task_idle);
   401  000BEE  0EB4               	movlw	low _task_idle
   402  000BF0  6EE6               	movwf	postinc1,c
   403  000BF2  0E0B               	movlw	high _task_idle
   404  000BF4  6EE6               	movwf	postinc1,c
   405  000BF6  0E00               	movlw	0
   406  000BF8  6EE6               	movwf	postinc1,c
   407  000BFA  0E00               	movlw	0
   408  000BFC  6EE6               	movwf	postinc1,c
   409  000BFE  EC66  F004         	call	_task_create	;wreg free
   410  000C02                     
   411                           ; BSR set to: 1
   412                           ;kernel.c: 92:    config_tasks();
   413  000C02  EC0C  F006         	call	_config_tasks	;wreg free
   414  000C06                     
   415                           ; _os_config: autosize = 0, savesize = 0, parsavesize = 0, tempsize = 0 parsize = 0, arg
      +                          size = 0, vargsize = 0
   416  000C06  0012               	return		;funcret
   417  000C08                     __end_of_os_config:
   418                           	callstack 0
   419                           
   420 ;; *************** function _task_create *****************
   421 ;; Defined at:
   422 ;;		line 45 in file "kernel.c"
   423 ;; Parameters:    Size  Location     Type
   424 ;;  prior           2  [STACK] unsigned int 
   425 ;;  func            2  [STACK] PTR FTN()void 
   426 ;;		 -> task_idle(1), check_ironing(1), check_wash(1), task_read_buttons(1), 
   427 ;; Auto vars:     Size  Location     Type
   428 ;;  new_task       46  [STACK] struct tcb
   429 ;; Return value:  Size  Location     Type
   430 ;;                  1  [STACK] void 
   431 ;; Registers used:
   432 ;;		wreg, fsr0l, fsr0h, fsr1l, fsr1h, fsr2l, fsr2h, status,2, status,0, btemp+8, btemp+9, btemp+10, btemp+11, prodl, pro
      +dh
   433 ;; Tracked objects:
   434 ;;		On entry : 0/0
   435 ;;		On exit  : 3F/1
   436 ;;		Unchanged: 0/0
   437 ;; Data sizes:     COMRAM   BANK0   BANK1   BANK2   BANK3   BANK4   BANK5
   438 ;;      Params:         0       0       0       0       0       0       0
   439 ;;      Locals:         0       0       0       0       0       0       0
   440 ;;      Temps:          0       0       0       0       0       0       0
   441 ;;      Totals:         0       0       0       0       0       0       0
   442 ;;Total ram usage:        0 bytes
   443 ;; Hardware stack levels used:    1
   444 ;; Hardware stack levels required when called:    6
   445 ;; This function calls:
   446 ;;		Nothing
   447 ;; This function is called by:
   448 ;;		_main
   449 ;;		_os_config
   450 ;; This function uses a reentrant model
   451 ;;
   452                           
   453                           	psect	text3
   454  0008CC                     __ptext3:
   455                           	callstack 0
   456  0008CC                     _task_create:
   457                           	callstack 0
   458                           
   459                           ; autosize = 46, savesize = 0, parsavesize = 0, tempsize = 0 parsize = 4, argsize = 4 va
      +                          rgsize = 0, retsize = 0 argfudge = 0
   460  0008CC  0E2E               	movlw	46
   461  0008CE  26E1               	addwf	fsr1l,f,c
   462  0008D0  0E00               	movlw	0
   463  0008D2  22E2               	addwfc	fsr1h,f,c
   464  0008D4                     
   465                           ;kernel.c: 45: void task_create(u_int prior, task_ptr func);kernel.c: 46: {;kernel.c: 47
      +                          :    tcb_t new_task;;kernel.c: 49:    new_task.task_id = f_aptos.ready_queue_size + 1;
   466  0008D4  0E01               	movlw	1
   467  0008D6  0101               	movlb	1	; () banked
   468  0008D8  25E6               	addwf	(_f_aptos+230)& (0+255),w,b
   469  0008DA  6E3F               	movwf	(btemp+10)^0,c
   470  0008DC  0E00               	movlw	0
   471  0008DE  21E7               	addwfc	(_f_aptos+231)& (0+255),w,b
   472  0008E0  6E40               	movwf	(btemp+11)^0,c
   473                           
   474                           ;stkvar	_new_task @ sp[(-46)+0]
   475  0008E2  0ED2               	movlw	-46
   476  0008E4  C03F  FFE3         	movff	btemp+10,plusw1
   477  0008E8  0ED3               	movlw	-45
   478  0008EA  C040  FFE3         	movff	btemp+11,plusw1
   479  0008EE                     
   480                           ; BSR set to: 1
   481                           ;kernel.c: 50:    new_task.task_prior = prior;
   482                           ;stkvar	_prior @ sp[(-46)+-2]
   483  0008EE  50E1               	movf	fsr1l,w,c
   484  0008F0  0FD0               	addlw	-48
   485  0008F2  6ED9               	movwf	fsr2l,c
   486  0008F4  50E2               	movf	fsr1h,w,c
   487  0008F6  6EDA               	movwf	fsr2h,c
   488  0008F8  0EFF               	movlw	255
   489  0008FA  22DA               	addwfc	fsr2h,f,c
   490                           
   491                           ;stkvar	_new_task @ sp[(-46)+0]
   492  0008FC  0ED5               	movlw	213
   493  0008FE  24E1               	addwf	fsr1l,w,c
   494  000900  6EE9               	movwf	fsr0l,c
   495  000902  0EFF               	movlw	255
   496  000904  20E2               	addwfc	fsr1h,w,c
   497  000906  6EEA               	movwf	fsr0h,c
   498  000908  CFDE FFEE          	movff	postinc2,postinc0
   499  00090C  CFDD FFED          	movff	postdec2,postdec0
   500  000910                     
   501                           ; BSR set to: 1
   502                           ;kernel.c: 51:    new_task.task_state = READY;
   503                           ;stkvar	_new_task @ sp[(-46)+0]
   504  000910  0ED4               	movlw	212
   505  000912  24E1               	addwf	fsr1l,w,c
   506  000914  6ED9               	movwf	fsr2l,c
   507  000916  0EFF               	movlw	255
   508  000918  20E2               	addwfc	fsr1h,w,c
   509  00091A  6EDA               	movwf	fsr2h,c
   510  00091C  0E00               	movlw	0
   511  00091E  6EDF               	movwf	indf2,c
   512  000920                     
   513                           ; BSR set to: 1
   514                           ;kernel.c: 52:    new_task.task_func = func;
   515                           ;stkvar	_func @ sp[(-46)+-4]
   516  000920  50E1               	movf	fsr1l,w,c
   517  000922  0FCE               	addlw	-50
   518  000924  6ED9               	movwf	fsr2l,c
   519  000926  50E2               	movf	fsr1h,w,c
   520  000928  6EDA               	movwf	fsr2h,c
   521  00092A  0EFF               	movlw	255
   522  00092C  22DA               	addwfc	fsr2h,f,c
   523                           
   524                           ;stkvar	_new_task @ sp[(-46)+0]
   525  00092E  0ED7               	movlw	215
   526  000930  24E1               	addwf	fsr1l,w,c
   527  000932  6EE9               	movwf	fsr0l,c
   528  000934  0EFF               	movlw	255
   529  000936  20E2               	addwfc	fsr1h,w,c
   530  000938  6EEA               	movwf	fsr0h,c
   531  00093A  CFDE FFEE          	movff	postinc2,postinc0
   532  00093E  CFDD FFED          	movff	postdec2,postdec0
   533  000942                     
   534                           ; BSR set to: 1
   535                           ;kernel.c: 53:    new_task.task_stack.size = 0;
   536                           ;stkvar	_new_task @ sp[(-46)+0]
   537  000942  0EF9               	movlw	249
   538  000944  24E1               	addwf	fsr1l,w,c
   539  000946  6ED9               	movwf	fsr2l,c
   540  000948  0EFF               	movlw	255
   541  00094A  20E2               	addwfc	fsr1h,w,c
   542  00094C  6EDA               	movwf	fsr2h,c
   543  00094E  0E00               	movlw	0
   544  000950  6EDE               	movwf	postinc2,c
   545  000952  0E00               	movlw	0
   546  000954  6EDD               	movwf	postdec2,c
   547  000956                     
   548                           ; BSR set to: 1
   549                           ;kernel.c: 56:    f_aptos.ready_queue[f_aptos.ready_queue_size + 1] = new_task;
   550                           ;stkvar	_new_task @ sp[(-46)+0]
   551  000956  0ED2               	movlw	210
   552  000958  24E1               	addwf	fsr1l,w,c
   553  00095A  6ED9               	movwf	fsr2l,c
   554  00095C  0EFF               	movlw	255
   555  00095E  20E2               	addwfc	fsr1h,w,c
   556  000960  6EDA               	movwf	fsr2h,c
   557  000962  EE01  F0E6         	lfsr	0,_f_aptos+230
   558  000966  CFEE F03F          	movff	postinc0,btemp+10
   559  00096A  CFED F040          	movff	postdec0,btemp+11
   560  00096E  0E2E               	movlw	46
   561  000970  023F               	mulwf	(btemp+10)^0,c
   562  000972  CFF3 F03D          	movff	prodl,btemp+8
   563  000976  CFF4 F03E          	movff	prodh,btemp+9
   564  00097A  0240               	mulwf	(btemp+11)^0,c
   565  00097C  50F3               	movf	prodl,w,c
   566  00097E  263E               	addwf	(btemp+9)^0,f,c
   567  000980  0E2E               	movlw	low (_f_aptos+46)
   568  000982  243D               	addwf	(btemp+8)^0,w,c
   569  000984  6EE9               	movwf	fsr0l,c
   570  000986  0E01               	movlw	high (_f_aptos+46)
   571  000988  203E               	addwfc	(btemp+9)^0,w,c
   572  00098A  6EEA               	movwf	fsr0h,c
   573  00098C  0E2D               	movlw	45
   574  00098E                     u51:
   575  00098E  CFDB FFEB          	movff	plusw2,plusw0
   576  000992  06E8               	decf	wreg,f,c
   577  000994  E2FC               	bc	u51
   578  000996                     
   579                           ; BSR set to: 1
   580                           ;kernel.c: 57:    f_aptos.ready_queue_size++;
   581  000996  4BE6               	infsnz	(_f_aptos+230)& (0+255),f,b
   582  000998  2BE7               	incf	(_f_aptos+231)& (0+255),f,b
   583  00099A                     
   584                           ; BSR set to: 1
   585                           ; _task_create: autosize = 46, savesize = 0, parsavesize = 0, tempsize = 0 parsize = 4, 
      +                          argsize = 4, vargsize = 0
   586  00099A  0ECE               	movlw	206
   587  00099C  26E1               	addwf	fsr1l,f,c
   588  00099E  0EFF               	movlw	255
   589  0009A0  22E2               	addwfc	fsr1h,f,c
   590  0009A2  0012               	return		;funcret
   591  0009A4                     __end_of_task_create:
   592                           	callstack 0
   593                           
   594 ;; *************** function _setup_timer_0 *****************
   595 ;; Defined at:
   596 ;;		line 16 in file "timer.c"
   597 ;; Parameters:    Size  Location     Type
   598 ;;		None
   599 ;; Auto vars:     Size  Location     Type
   600 ;;		None
   601 ;; Return value:  Size  Location     Type
   602 ;;                  1  [STACK] void 
   603 ;; Registers used:
   604 ;;		wreg, status,2
   605 ;; Tracked objects:
   606 ;;		On entry : 3F/1
   607 ;;		On exit  : 0/0
   608 ;;		Unchanged: 0/0
   609 ;; Data sizes:     COMRAM   BANK0   BANK1   BANK2   BANK3   BANK4   BANK5
   610 ;;      Params:         0       0       0       0       0       0       0
   611 ;;      Locals:         0       0       0       0       0       0       0
   612 ;;      Temps:          0       0       0       0       0       0       0
   613 ;;      Totals:         0       0       0       0       0       0       0
   614 ;;Total ram usage:        0 bytes
   615 ;; Hardware stack levels used:    1
   616 ;; Hardware stack levels required when called:    6
   617 ;; This function calls:
   618 ;;		Nothing
   619 ;; This function is called by:
   620 ;;		_os_config
   621 ;; This function uses a reentrant model
   622 ;;
   623                           
   624                           	psect	text4
   625  000C08                     __ptext4:
   626                           	callstack 0
   627  000C08                     _setup_timer_0:
   628                           	callstack 23
   629  000C08                     
   630                           ;timer.c: 19:    INTCONbits.TMR0IE = 1;
   631  000C08  8AF2               	bsf	242,5,c	;volatile
   632                           
   633                           ;timer.c: 20:    INTCONbits.PEIE = 1;
   634  000C0A  8CF2               	bsf	242,6,c	;volatile
   635                           
   636                           ;timer.c: 21:    T0CONbits.T0CS = 0;
   637  000C0C  9AD5               	bcf	213,5,c	;volatile
   638                           
   639                           ;timer.c: 22:    T0CONbits.PSA = 0;
   640  000C0E  96D5               	bcf	213,3,c	;volatile
   641  000C10                     
   642                           ;timer.c: 23:    T0CONbits.T0PS = 0b111;
   643  000C10  0E07               	movlw	7
   644  000C12  12D5               	iorwf	213,f,c	;volatile
   645  000C14                     
   646                           ;timer.c: 24:    TMR0L = 0;
   647  000C14  6AD6               	clrf	214,c	;volatile
   648  000C16                     
   649                           ; _setup_timer_0: autosize = 0, savesize = 0, parsavesize = 0, tempsize = 0 parsize = 0,
      +                           argsize = 0, vargsize = 0
   650  000C16  0012               	return		;funcret
   651  000C18                     __end_of_setup_timer_0:
   652                           	callstack 0
   653                           
   654 ;; *************** function _config_tasks *****************
   655 ;; Defined at:
   656 ;;		line 20 in file "tasks.c"
   657 ;; Parameters:    Size  Location     Type
   658 ;;		None
   659 ;; Auto vars:     Size  Location     Type
   660 ;;		None
   661 ;; Return value:  Size  Location     Type
   662 ;;                  1  [STACK] void 
   663 ;; Registers used:
   664 ;;		None
   665 ;; Tracked objects:
   666 ;;		On entry : 3F/1
   667 ;;		On exit  : 0/0
   668 ;;		Unchanged: 0/0
   669 ;; Data sizes:     COMRAM   BANK0   BANK1   BANK2   BANK3   BANK4   BANK5
   670 ;;      Params:         0       0       0       0       0       0       0
   671 ;;      Locals:         0       0       0       0       0       0       0
   672 ;;      Temps:          0       0       0       0       0       0       0
   673 ;;      Totals:         0       0       0       0       0       0       0
   674 ;;Total ram usage:        0 bytes
   675 ;; Hardware stack levels used:    1
   676 ;; Hardware stack levels required when called:    6
   677 ;; This function calls:
   678 ;;		Nothing
   679 ;; This function is called by:
   680 ;;		_os_config
   681 ;; This function uses a reentrant model
   682 ;;
   683                           
   684                           	psect	text5
   685  000C18                     __ptext5:
   686                           	callstack 0
   687  000C18                     _config_tasks:
   688                           	callstack 23
   689  000C18                     
   690                           ;tasks.c: 22:    TRISDbits.RD0 = 1;
   691  000C18  8095               	bsf	149,0,c	;volatile
   692                           
   693                           ;tasks.c: 23:    TRISDbits.RD1 = 1;
   694  000C1A  8295               	bsf	149,1,c	;volatile
   695                           
   696                           ;tasks.c: 24:    TRISDbits.RD2 = 0;
   697  000C1C  9495               	bcf	149,2,c	;volatile
   698  000C1E                     
   699                           ; _config_tasks: autosize = 0, savesize = 0, parsavesize = 0, tempsize = 0 parsize = 0, 
      +                          argsize = 0, vargsize = 0
   700  000C1E  0012               	return		;funcret
   701  000C20                     __end_of_config_tasks:
   702                           	callstack 0
   703                           
   704 ;; *************** function _task_idle *****************
   705 ;; Defined at:
   706 ;;		line 98 in file "kernel.c"
   707 ;; Parameters:    Size  Location     Type
   708 ;;		None
   709 ;; Auto vars:     Size  Location     Type
   710 ;;		None
   711 ;; Return value:  Size  Location     Type
   712 ;;                  1  [STACK] void 
   713 ;; Registers used:
   714 ;;		wreg, status,2, status,0, btemp+11
   715 ;; Tracked objects:
   716 ;;		On entry : 0/0
   717 ;;		On exit  : 0/0
   718 ;;		Unchanged: 0/0
   719 ;; Data sizes:     COMRAM   BANK0   BANK1   BANK2   BANK3   BANK4   BANK5
   720 ;;      Params:         0       0       0       0       0       0       0
   721 ;;      Locals:         0       0       0       0       0       0       0
   722 ;;      Temps:          0       0       0       0       0       0       0
   723 ;;      Totals:         0       0       0       0       0       0       0
   724 ;;Total ram usage:        0 bytes
   725 ;; Hardware stack levels used:    1
   726 ;; Hardware stack levels required when called:    4
   727 ;; This function calls:
   728 ;;		Nothing
   729 ;; This function is called by:
   730 ;;		_os_config
   731 ;; This function uses a reentrant model
   732 ;;
   733                           
   734                           	psect	text6
   735  000BB4                     __ptext6:
   736                           	callstack 0
   737  000BB4                     _task_idle:
   738                           	callstack 24
   739  000BB4                     l83:
   740  000BB4                     
   741                           ;kernel.c: 101:    {;kernel.c: 103:       PORTDbits.RD3 = ~PORTDbits.RD3;
   742  000BB4  B683               	btfsc	131,3,c	;volatile
   743  000BB6  EFDF  F005         	goto	u11_21
   744  000BBA  EFE2  F005         	goto	u11_20
   745  000BBE                     u11_21:
   746  000BBE  0E01               	movlw	1
   747  000BC0  EFE3  F005         	goto	u11_26
   748  000BC4                     u11_20:
   749  000BC4  0E00               	movlw	0
   750  000BC6                     u11_26:
   751  000BC6  0AFF               	xorlw	255
   752  000BC8  6E40               	movwf	(btemp+11)^0,c
   753  000BCA  4640               	rlncf	(btemp+11)^0,f,c
   754  000BCC  4640               	rlncf	(btemp+11)^0,f,c
   755  000BCE  4640               	rlncf	(btemp+11)^0,f,c
   756  000BD0  5083               	movf	131,w,c	;volatile
   757  000BD2  1840               	xorwf	(btemp+11)^0,w,c
   758  000BD4  0BF7               	andlw	-9
   759  000BD6  1840               	xorwf	(btemp+11)^0,w,c
   760  000BD8  6E83               	movwf	131,c	;volatile
   761  000BDA  EFDA  F005         	goto	l83
   762                           
   763                           ; _task_idle: autosize = 0, savesize = 0, parsavesize = 0, tempsize = 0 parsize = 0, arg
      +                          size = 0, vargsize = 0
   764  000BDE  0012               	return		;funcret
   765  000BE0                     __end_of_task_idle:
   766                           	callstack 0
   767                           
   768 ;; *************** function _task_read_buttons *****************
   769 ;; Defined at:
   770 ;;		line 28 in file "tasks.c"
   771 ;; Parameters:    Size  Location     Type
   772 ;;		None
   773 ;; Auto vars:     Size  Location     Type
   774 ;;  clothes         6  [STACK] struct clothes_control
   775 ;;  clothes         6  [STACK] struct clothes_control
   776 ;; Return value:  Size  Location     Type
   777 ;;                  1  [STACK] void 
   778 ;; Registers used:
   779 ;;		wreg, fsr0l, fsr0h, fsr1l, fsr1h, fsr2l, fsr2h, status,2, status,0, btemp+8, btemp+9, btemp+10, btemp+11, prodl, pro
      +dh
   780 ;; Tracked objects:
   781 ;;		On entry : 0/0
   782 ;;		On exit  : 0/0
   783 ;;		Unchanged: 0/0
   784 ;; Data sizes:     COMRAM   BANK0   BANK1   BANK2   BANK3   BANK4   BANK5
   785 ;;      Params:         0       0       0       0       0       0       0
   786 ;;      Locals:         0       0       0       0       0       0       0
   787 ;;      Temps:          0       0       0       0       0       0       0
   788 ;;      Totals:         0       0       0       0       0       0       0
   789 ;;Total ram usage:        0 bytes
   790 ;; Hardware stack levels used:    1
   791 ;; Hardware stack levels required when called:    4
   792 ;; This function calls:
   793 ;;		Nothing
   794 ;; This function is called by:
   795 ;;		_main
   796 ;; This function uses a reentrant model
   797 ;;
   798                           
   799                           	psect	text7
   800  00068C                     __ptext7:
   801                           	callstack 0
   802  00068C                     _task_read_buttons:
   803                           	callstack 0
   804                           
   805                           ; autosize = 12, savesize = 0, parsavesize = 0, tempsize = 0 parsize = 0, argsize = 0 va
      +                          rgsize = 0, retsize = 0 argfudge = 0
   806  00068C  0E0C               	movlw	12
   807  00068E  26E1               	addwf	fsr1l,f,c
   808  000690  0E00               	movlw	0
   809  000692  22E2               	addwfc	fsr1h,f,c
   810  000694                     
   811                           ;tasks.c: 31:    if (PORTDbits.RD0 == 1 && f_clothes.fila_size < 3)
   812  000694  A083               	btfss	131,0,c	;volatile
   813  000696  EF4F  F003         	goto	u12_21
   814  00069A  EF51  F003         	goto	u12_20
   815  00069E                     u12_21:
   816  00069E  EF97  F003         	goto	l129
   817  0006A2                     u12_20:
   818  0006A2  5014               	movf	(_f_clothes+19)^0,w,c
   819  0006A4  E107               	bnz	u13_21
   820  0006A6  0E03               	movlw	3
   821  0006A8  5C13               	subwf	(_f_clothes+18)^0,w,c
   822  0006AA  B0D8               	btfsc	status,0,c
   823  0006AC  EF5A  F003         	goto	u13_21
   824  0006B0  EF5C  F003         	goto	u13_20
   825  0006B4                     u13_21:
   826  0006B4  EF97  F003         	goto	l129
   827  0006B8                     u13_20:
   828  0006B8                     
   829                           ;tasks.c: 32:    {;tasks.c: 34:       clothes_control_t clothes;;tasks.c: 35:       clot
      +                          hes.color = 0;
   830                           ;stkvar	_clothes @ sp[(-12)+6]
   831  0006B8  0EFA               	movlw	-6
   832  0006BA  6AE3               	clrf	plusw1,c
   833  0006BC  0EFB               	movlw	-5
   834  0006BE  6AE3               	clrf	plusw1,c
   835  0006C0                     
   836                           ;tasks.c: 36:       clothes.washing_cicles = 1;
   837                           ;stkvar	_clothes @ sp[(-12)+6]
   838  0006C0  0EFC               	movlw	252
   839  0006C2  24E1               	addwf	fsr1l,w,c
   840  0006C4  6ED9               	movwf	fsr2l,c
   841  0006C6  0EFF               	movlw	255
   842  0006C8  20E2               	addwfc	fsr1h,w,c
   843  0006CA  6EDA               	movwf	fsr2h,c
   844  0006CC  0E01               	movlw	1
   845  0006CE  6EDE               	movwf	postinc2,c
   846  0006D0  0E00               	movlw	0
   847  0006D2  6EDD               	movwf	postdec2,c
   848  0006D4                     
   849                           ;tasks.c: 37:       clothes.state = 0;
   850                           ;stkvar	_clothes @ sp[(-12)+6]
   851  0006D4  0EFE               	movlw	254
   852  0006D6  24E1               	addwf	fsr1l,w,c
   853  0006D8  6ED9               	movwf	fsr2l,c
   854  0006DA  0EFF               	movlw	255
   855  0006DC  20E2               	addwfc	fsr1h,w,c
   856  0006DE  6EDA               	movwf	fsr2h,c
   857  0006E0  0E00               	movlw	0
   858  0006E2  6EDE               	movwf	postinc2,c
   859  0006E4  0E00               	movlw	0
   860  0006E6  6EDD               	movwf	postdec2,c
   861  0006E8                     
   862                           ;tasks.c: 39:       PORTDbits.RD2 = 1;
   863  0006E8  8483               	bsf	131,2,c	;volatile
   864  0006EA                     
   865                           ;tasks.c: 43:       f_clothes.clothes_waiting[f_clothes.fila_size] = clothes;
   866                           ;stkvar	_clothes @ sp[(-12)+6]
   867  0006EA  0EFA               	movlw	250
   868  0006EC  24E1               	addwf	fsr1l,w,c
   869  0006EE  6ED9               	movwf	fsr2l,c
   870  0006F0  0EFF               	movlw	255
   871  0006F2  20E2               	addwfc	fsr1h,w,c
   872  0006F4  6EDA               	movwf	fsr2h,c
   873  0006F6  EE00  F013         	lfsr	0,_f_clothes+18
   874  0006FA  CFEE F03F          	movff	postinc0,btemp+10
   875  0006FE  CFED F040          	movff	postdec0,btemp+11
   876  000702  0E06               	movlw	6
   877  000704  023F               	mulwf	(btemp+10)^0,c
   878  000706  CFF3 F03D          	movff	prodl,btemp+8
   879  00070A  CFF4 F03E          	movff	prodh,btemp+9
   880  00070E  0240               	mulwf	(btemp+11)^0,c
   881  000710  50F3               	movf	prodl,w,c
   882  000712  263E               	addwf	(btemp+9)^0,f,c
   883  000714  0E01               	movlw	low _f_clothes
   884  000716  243D               	addwf	(btemp+8)^0,w,c
   885  000718  6EE9               	movwf	fsr0l,c
   886  00071A  0E00               	movlw	high _f_clothes
   887  00071C  203E               	addwfc	(btemp+9)^0,w,c
   888  00071E  6EEA               	movwf	fsr0h,c
   889  000720  0E05               	movlw	5
   890  000722                     u14_21:
   891  000722  CFDB FFEB          	movff	plusw2,plusw0
   892  000726  06E8               	decf	wreg,f,c
   893  000728  E2FC               	bc	u14_21
   894                           
   895                           ;tasks.c: 46:    }
   896  00072A  EFED  F003         	goto	l133
   897  00072E                     l129:
   898  00072E  A283               	btfss	131,1,c	;volatile
   899  000730  EF9C  F003         	goto	u15_21
   900  000734  EF9E  F003         	goto	u15_20
   901  000738                     u15_21:
   902  000738  EFEC  F003         	goto	l131
   903  00073C                     u15_20:
   904  00073C  5014               	movf	(_f_clothes+19)^0,w,c
   905  00073E  E107               	bnz	u16_21
   906  000740  0E03               	movlw	3
   907  000742  5C13               	subwf	(_f_clothes+18)^0,w,c
   908  000744  B0D8               	btfsc	status,0,c
   909  000746  EFA7  F003         	goto	u16_21
   910  00074A  EFA9  F003         	goto	u16_20
   911  00074E                     u16_21:
   912  00074E  EFEC  F003         	goto	l131
   913  000752                     u16_20:
   914  000752                     
   915                           ;tasks.c: 48:    {;tasks.c: 50:       clothes_control_t clothes;;tasks.c: 51:       clot
      +                          hes.color = 1;
   916  000752  0E01               	movlw	1
   917  000754  6E3F               	movwf	(btemp+10)^0,c
   918  000756  0E00               	movlw	0
   919  000758  6E40               	movwf	(btemp+11)^0,c
   920                           
   921                           ;stkvar	_clothes @ sp[(-12)+0]
   922  00075A  0EF4               	movlw	-12
   923  00075C  C03F  FFE3         	movff	btemp+10,plusw1
   924  000760  0EF5               	movlw	-11
   925  000762  C040  FFE3         	movff	btemp+11,plusw1
   926  000766                     
   927                           ;tasks.c: 52:       clothes.washing_cicles = 2;
   928                           ;stkvar	_clothes @ sp[(-12)+0]
   929  000766  0EF6               	movlw	246
   930  000768  24E1               	addwf	fsr1l,w,c
   931  00076A  6ED9               	movwf	fsr2l,c
   932  00076C  0EFF               	movlw	255
   933  00076E  20E2               	addwfc	fsr1h,w,c
   934  000770  6EDA               	movwf	fsr2h,c
   935  000772  0E02               	movlw	2
   936  000774  6EDE               	movwf	postinc2,c
   937  000776  0E00               	movlw	0
   938  000778  6EDD               	movwf	postdec2,c
   939  00077A                     
   940                           ;tasks.c: 53:       clothes.state = 0;
   941                           ;stkvar	_clothes @ sp[(-12)+0]
   942  00077A  0EF8               	movlw	248
   943  00077C  24E1               	addwf	fsr1l,w,c
   944  00077E  6ED9               	movwf	fsr2l,c
   945  000780  0EFF               	movlw	255
   946  000782  20E2               	addwfc	fsr1h,w,c
   947  000784  6EDA               	movwf	fsr2h,c
   948  000786  0E00               	movlw	0
   949  000788  6EDE               	movwf	postinc2,c
   950  00078A  0E00               	movlw	0
   951  00078C  6EDD               	movwf	postdec2,c
   952  00078E                     
   953                           ;tasks.c: 55:       PORTDbits.RD2 = 1;
   954  00078E  8483               	bsf	131,2,c	;volatile
   955  000790                     
   956                           ;tasks.c: 59:       f_clothes.clothes_waiting[f_clothes.fila_size] = clothes;
   957                           ;stkvar	_clothes @ sp[(-12)+0]
   958  000790  0EF4               	movlw	244
   959  000792  24E1               	addwf	fsr1l,w,c
   960  000794  6ED9               	movwf	fsr2l,c
   961  000796  0EFF               	movlw	255
   962  000798  20E2               	addwfc	fsr1h,w,c
   963  00079A  6EDA               	movwf	fsr2h,c
   964  00079C  EE00  F013         	lfsr	0,_f_clothes+18
   965  0007A0  CFEE F03F          	movff	postinc0,btemp+10
   966  0007A4  CFED F040          	movff	postdec0,btemp+11
   967  0007A8  0E06               	movlw	6
   968  0007AA  023F               	mulwf	(btemp+10)^0,c
   969  0007AC  CFF3 F03D          	movff	prodl,btemp+8
   970  0007B0  CFF4 F03E          	movff	prodh,btemp+9
   971  0007B4  0240               	mulwf	(btemp+11)^0,c
   972  0007B6  50F3               	movf	prodl,w,c
   973  0007B8  263E               	addwf	(btemp+9)^0,f,c
   974  0007BA  0E01               	movlw	low _f_clothes
   975  0007BC  243D               	addwf	(btemp+8)^0,w,c
   976  0007BE  6EE9               	movwf	fsr0l,c
   977  0007C0  0E00               	movlw	high _f_clothes
   978  0007C2  203E               	addwfc	(btemp+9)^0,w,c
   979  0007C4  6EEA               	movwf	fsr0h,c
   980  0007C6  0E05               	movlw	5
   981  0007C8                     u17_21:
   982  0007C8  CFDB FFEB          	movff	plusw2,plusw0
   983  0007CC  06E8               	decf	wreg,f,c
   984  0007CE  E2FC               	bc	u17_21
   985  0007D0                     
   986                           ;tasks.c: 60:       f_clothes.fila_size++;
   987  0007D0  4A13               	infsnz	(_f_clothes+18)^0,f,c
   988  0007D2  2A14               	incf	(_f_clothes+19)^0,f,c
   989                           
   990                           ;tasks.c: 62:    }
   991  0007D4  EFED  F003         	goto	l133
   992  0007D8                     l131:
   993                           
   994                           ;tasks.c: 64:    {;tasks.c: 65:       PORTDbits.RD2 = 0;
   995  0007D8  9483               	bcf	131,2,c	;volatile
   996  0007DA                     l133:
   997                           
   998                           ; _task_read_buttons: autosize = 12, savesize = 0, parsavesize = 0, tempsize = 0 parsize
      +                           = 0, argsize = 0, vargsize = 0
   999  0007DA  0EF4               	movlw	244
  1000  0007DC  26E1               	addwf	fsr1l,f,c
  1001  0007DE  0EFF               	movlw	255
  1002  0007E0  22E2               	addwfc	fsr1h,f,c
  1003  0007E2  0012               	return		;funcret
  1004  0007E4                     __end_of_task_read_buttons:
  1005                           	callstack 0
  1006                           
  1007 ;; *************** function _check_wash *****************
  1008 ;; Defined at:
  1009 ;;		line 69 in file "tasks.c"
  1010 ;; Parameters:    Size  Location     Type
  1011 ;;		None
  1012 ;; Auto vars:     Size  Location     Type
  1013 ;;  i               2  [STACK] int 
  1014 ;;  next_clothes    6  [STACK] struct clothes_control
  1015 ;; Return value:  Size  Location     Type
  1016 ;;                  1  [STACK] void 
  1017 ;; Registers used:
  1018 ;;		wreg, fsr0l, fsr0h, fsr1l, fsr1h, fsr2l, fsr2h, status,2, status,0, btemp, btemp+8, btemp+9, btemp+10, btemp+11, pro
      +dl, prodh
  1019 ;; Tracked objects:
  1020 ;;		On entry : 0/0
  1021 ;;		On exit  : 0/0
  1022 ;;		Unchanged: 0/0
  1023 ;; Data sizes:     COMRAM   BANK0   BANK1   BANK2   BANK3   BANK4   BANK5
  1024 ;;      Params:         0       0       0       0       0       0       0
  1025 ;;      Locals:         0       0       0       0       0       0       0
  1026 ;;      Temps:          0       0       0       0       0       0       0
  1027 ;;      Totals:         0       0       0       0       0       0       0
  1028 ;;Total ram usage:        0 bytes
  1029 ;; Hardware stack levels used:    1
  1030 ;; Hardware stack levels required when called:    5
  1031 ;; This function calls:
  1032 ;;		_run_wash
  1033 ;; This function is called by:
  1034 ;;		_main
  1035 ;; This function uses a reentrant model
  1036 ;;
  1037                           
  1038                           	psect	text8
  1039  0003B8                     __ptext8:
  1040                           	callstack 0
  1041  0003B8                     _check_wash:
  1042                           	callstack 0
  1043                           
  1044                           ; autosize = 8, savesize = 0, parsavesize = 0, tempsize = 0 parsize = 0, argsize = 0 var
      +                          gsize = 0, retsize = 0 argfudge = 0
  1045  0003B8  0E08               	movlw	8
  1046  0003BA  26E1               	addwf	fsr1l,f,c
  1047  0003BC  0E00               	movlw	0
  1048  0003BE  22E2               	addwfc	fsr1h,f,c
  1049  0003C0                     
  1050                           ;tasks.c: 74:    if (flag_wash == 0)
  1051  0003C0  502F               	movf	_flag_wash^0,w,c
  1052  0003C2  1030               	iorwf	(_flag_wash+1)^0,w,c
  1053  0003C4  A4D8               	btfss	status,2,c
  1054  0003C6  EFE7  F001         	goto	u18_21
  1055  0003CA  EFE9  F001         	goto	u18_20
  1056  0003CE                     u18_21:
  1057  0003CE  EF74  F002         	goto	l1197
  1058  0003D2                     u18_20:
  1059  0003D2                     
  1060                           ;tasks.c: 75:    {;tasks.c: 78:       clothes_control_t next_clothes = f_clothes.clothes
      +                          _waiting[0];
  1061  0003D2  EE20  F001         	lfsr	2,_f_clothes
  1062                           
  1063                           ;stkvar	_next_clothes @ sp[(-8)+2]
  1064  0003D6  0E06               	movlw	6
  1065  0003D8  6E35               	movwf	btemp^0,c
  1066  0003DA  0EFA               	movlw	-6
  1067  0003DC                     us19_2999:
  1068  0003DC  CFDE FFE3          	movff	postinc2,plusw1
  1069  0003E0  28E8               	incf	wreg,w,c
  1070  0003E2  2E35               	decfsz	btemp^0,f,c
  1071  0003E4  D7FB               	bra	us19_2999
  1072  0003E6                     
  1073                           ;tasks.c: 80:       for (int i = 0; i < 3 - 1; i++)
  1074                           ;stkvar	_i @ sp[(-8)+0]
  1075  0003E6  0EF8               	movlw	-8
  1076  0003E8  6AE3               	clrf	plusw1,c
  1077  0003EA  0EF9               	movlw	-7
  1078  0003EC  6AE3               	clrf	plusw1,c
  1079  0003EE                     l1181:
  1080                           
  1081                           ;tasks.c: 81:       {;tasks.c: 82:          f_clothes.clothes_waiting[i] = f_clothes.clo
      +                          thes_waiting[i + 1];
  1082                           ;stkvar	_i @ sp[(-8)+0]
  1083  0003EE  0EF8               	movlw	-8
  1084  0003F0  CFE3 F03F          	movff	plusw1,btemp+10
  1085  0003F4  0EF9               	movlw	-7
  1086  0003F6  CFE3 F040          	movff	plusw1,btemp+11
  1087  0003FA  0E06               	movlw	6
  1088  0003FC  023F               	mulwf	(btemp+10)^0,c
  1089  0003FE  CFF3 F03D          	movff	prodl,btemp+8
  1090  000402  CFF4 F03E          	movff	prodh,btemp+9
  1091  000406  0240               	mulwf	(btemp+11)^0,c
  1092  000408  50F3               	movf	prodl,w,c
  1093  00040A  263E               	addwf	(btemp+9)^0,f,c
  1094  00040C  0E07               	movlw	low (_f_clothes+6)
  1095  00040E  243D               	addwf	(btemp+8)^0,w,c
  1096  000410  6ED9               	movwf	fsr2l,c
  1097  000412  0E00               	movlw	high (_f_clothes+6)
  1098  000414  203E               	addwfc	(btemp+9)^0,w,c
  1099  000416  6EDA               	movwf	fsr2h,c
  1100                           
  1101                           ;stkvar	_i @ sp[(-8)+0]
  1102  000418  0EF8               	movlw	-8
  1103  00041A  CFE3 F03F          	movff	plusw1,btemp+10
  1104  00041E  0EF9               	movlw	-7
  1105  000420  CFE3 F040          	movff	plusw1,btemp+11
  1106  000424  0E06               	movlw	6
  1107  000426  023F               	mulwf	(btemp+10)^0,c
  1108  000428  CFF3 F03D          	movff	prodl,btemp+8
  1109  00042C  CFF4 F03E          	movff	prodh,btemp+9
  1110  000430  0240               	mulwf	(btemp+11)^0,c
  1111  000432  50F3               	movf	prodl,w,c
  1112  000434  263E               	addwf	(btemp+9)^0,f,c
  1113  000436  0E01               	movlw	low _f_clothes
  1114  000438  243D               	addwf	(btemp+8)^0,w,c
  1115  00043A  6EE9               	movwf	fsr0l,c
  1116  00043C  0E00               	movlw	high _f_clothes
  1117  00043E  203E               	addwfc	(btemp+9)^0,w,c
  1118  000440  6EEA               	movwf	fsr0h,c
  1119  000442  0E05               	movlw	5
  1120  000444                     u20_21:
  1121  000444  CFDB FFEB          	movff	plusw2,plusw0
  1122  000448  06E8               	decf	wreg,f,c
  1123  00044A  E2FC               	bc	u20_21
  1124  00044C                     
  1125                           ;tasks.c: 83:       }
  1126                           ;stkvar	_i @ sp[(-8)+0]
  1127  00044C  0EF8               	movlw	-8
  1128  00044E  50E3               	movf	plusw1,w,c
  1129  000450  0F01               	addlw	1
  1130  000452  6E35               	movwf	btemp^0,c
  1131  000454  0EF8               	movlw	-8
  1132  000456  C035  FFE3         	movff	btemp,plusw1
  1133  00045A  6A35               	clrf	btemp^0,c
  1134  00045C  0EF9               	movlw	-7
  1135  00045E  50E3               	movf	plusw1,w,c
  1136  000460  2035               	addwfc	btemp^0,w,c
  1137  000462  6E35               	movwf	btemp^0,c
  1138  000464  0EF9               	movlw	-7
  1139  000466  C035  FFE3         	movff	btemp,plusw1
  1140  00046A                     
  1141                           ;stkvar	_i @ sp[(-8)+0]
  1142  00046A  0EF9               	movlw	-7
  1143  00046C  BEE3               	btfsc	plusw1,7,c
  1144  00046E  EF46  F002         	goto	u21_21
  1145  000472  0EF9               	movlw	-7
  1146  000474  50E3               	movf	plusw1,w,c
  1147  000476  E10C               	bnz	u21_20
  1148  000478  0EF8               	movlw	-8
  1149  00047A  CFE3 F035          	movff	plusw1,btemp
  1150  00047E  0E02               	movlw	2
  1151  000480  5E35               	subwf	btemp^0,f,c
  1152  000482  A0D8               	btfss	status,0,c
  1153  000484  EF46  F002         	goto	u21_21
  1154  000488  EF48  F002         	goto	u21_20
  1155  00048C                     u21_21:
  1156  00048C  EFF7  F001         	goto	l1181
  1157  000490                     u21_20:
  1158  000490                     
  1159                           ;tasks.c: 85:       f_clothes.fila_size--;
  1160  000490  0613               	decf	(_f_clothes+18)^0,f,c
  1161  000492  A0D8               	btfss	status,0,c
  1162  000494  0614               	decf	(_f_clothes+19)^0,f,c
  1163  000496                     
  1164                           ;tasks.c: 86:       f_clothes.clothes_washing = next_clothes;
  1165                           ;stkvar	_next_clothes @ sp[(-8)+2]
  1166  000496  0EFA               	movlw	250
  1167  000498  24E1               	addwf	fsr1l,w,c
  1168  00049A  6ED9               	movwf	fsr2l,c
  1169  00049C  0EFF               	movlw	255
  1170  00049E  20E2               	addwfc	fsr1h,w,c
  1171  0004A0  6EDA               	movwf	fsr2h,c
  1172  0004A2  EE00  F015         	lfsr	0,_f_clothes+20
  1173  0004A6  0E05               	movlw	5
  1174  0004A8                     u22_21:
  1175  0004A8  CFDB FFEB          	movff	plusw2,plusw0
  1176  0004AC  06E8               	decf	wreg,f,c
  1177  0004AE  E2FC               	bc	u22_21
  1178  0004B0                     
  1179                           ;tasks.c: 88:       flag_wash = 1;
  1180  0004B0  0E00               	movlw	0
  1181  0004B2  6E30               	movwf	(_flag_wash+1)^0,c
  1182  0004B4  0E01               	movlw	1
  1183  0004B6  6E2F               	movwf	_flag_wash^0,c
  1184  0004B8                     
  1185                           ;tasks.c: 90:       next_clothes.state = 0;
  1186                           ;stkvar	_next_clothes @ sp[(-8)+2]
  1187  0004B8  0EFE               	movlw	254
  1188  0004BA  24E1               	addwf	fsr1l,w,c
  1189  0004BC  6ED9               	movwf	fsr2l,c
  1190  0004BE  0EFF               	movlw	255
  1191  0004C0  20E2               	addwfc	fsr1h,w,c
  1192  0004C2  6EDA               	movwf	fsr2h,c
  1193  0004C4  0E00               	movlw	0
  1194  0004C6  6EDE               	movwf	postinc2,c
  1195  0004C8  0E00               	movlw	0
  1196  0004CA  6EDD               	movwf	postdec2,c
  1197  0004CC                     
  1198                           ;tasks.c: 91:       run_wash(next_clothes);
  1199                           ;stkvar	_next_clothes @ sp[(-8)+2]
  1200  0004CC  0EFA               	movlw	250
  1201  0004CE  24E1               	addwf	fsr1l,w,c
  1202  0004D0  6ED9               	movwf	fsr2l,c
  1203  0004D2  0EFF               	movlw	255
  1204  0004D4  20E2               	addwfc	fsr1h,w,c
  1205  0004D6  6EDA               	movwf	fsr2h,c
  1206  0004D8  0E06               	movlw	6
  1207  0004DA                     u23_21:
  1208  0004DA  CFDE FFE6          	movff	postinc2,postinc1
  1209  0004DE  2CE8               	decfsz	wreg,w,c
  1210  0004E0  EF6D  F002         	goto	u23_21
  1211  0004E4  ECBA  F005         	call	_run_wash	;wreg free
  1212  0004E8                     l1197:
  1213                           
  1214                           ;tasks.c: 94:    if (flag_wash == 1 && f_clothes.clothes_washing.state == 0)
  1215  0004E8  042F               	decf	_flag_wash^0,w,c
  1216  0004EA  1030               	iorwf	(_flag_wash+1)^0,w,c
  1217  0004EC  A4D8               	btfss	status,2,c
  1218  0004EE  EF7B  F002         	goto	u24_21
  1219  0004F2  EF7D  F002         	goto	u24_20
  1220  0004F6                     u24_21:
  1221  0004F6  EF92  F002         	goto	l1203
  1222  0004FA                     u24_20:
  1223  0004FA  5019               	movf	(_f_clothes+24)^0,w,c
  1224  0004FC  101A               	iorwf	(_f_clothes+25)^0,w,c
  1225  0004FE  A4D8               	btfss	status,2,c
  1226  000500  EF84  F002         	goto	u25_21
  1227  000504  EF86  F002         	goto	u25_20
  1228  000508                     u25_21:
  1229  000508  EF92  F002         	goto	l1203
  1230  00050C                     u25_20:
  1231  00050C                     
  1232                           ;tasks.c: 95:    {;tasks.c: 98:       run_wash(f_clothes.clothes_washing);
  1233  00050C  EE20  F015         	lfsr	2,_f_clothes+20
  1234  000510  0E06               	movlw	6
  1235  000512                     u26_21:
  1236  000512  CFDE FFE6          	movff	postinc2,postinc1
  1237  000516  2CE8               	decfsz	wreg,w,c
  1238  000518  EF89  F002         	goto	u26_21
  1239  00051C  ECBA  F005         	call	_run_wash	;wreg free
  1240                           
  1241                           ;tasks.c: 99:    }
  1242  000520  EF92  F002         	goto	l142
  1243  000524                     l1203:
  1244  000524                     l142:
  1245                           
  1246                           ; _check_wash: autosize = 8, savesize = 0, parsavesize = 0, tempsize = 0 parsize = 0, ar
      +                          gsize = 0, vargsize = 0
  1247  000524  0EF8               	movlw	248
  1248  000526  26E1               	addwf	fsr1l,f,c
  1249  000528  0EFF               	movlw	255
  1250  00052A  22E2               	addwfc	fsr1h,f,c
  1251  00052C  0012               	return		;funcret
  1252  00052E                     __end_of_check_wash:
  1253                           	callstack 0
  1254                           
  1255 ;; *************** function _run_wash *****************
  1256 ;; Defined at:
  1257 ;;		line 108 in file "tasks.c"
  1258 ;; Parameters:    Size  Location     Type
  1259 ;;  clothes_wash    6  [STACK] struct clothes_control
  1260 ;; Auto vars:     Size  Location     Type
  1261 ;;		None
  1262 ;; Return value:  Size  Location     Type
  1263 ;;                  1  [STACK] void 
  1264 ;; Registers used:
  1265 ;;		wreg, fsr2l, fsr2h, status,2, status,0
  1266 ;; Tracked objects:
  1267 ;;		On entry : 0/0
  1268 ;;		On exit  : 0/0
  1269 ;;		Unchanged: 0/0
  1270 ;; Data sizes:     COMRAM   BANK0   BANK1   BANK2   BANK3   BANK4   BANK5
  1271 ;;      Params:         0       0       0       0       0       0       0
  1272 ;;      Locals:         0       0       0       0       0       0       0
  1273 ;;      Temps:          0       0       0       0       0       0       0
  1274 ;;      Totals:         0       0       0       0       0       0       0
  1275 ;;Total ram usage:        0 bytes
  1276 ;; Hardware stack levels used:    1
  1277 ;; Hardware stack levels required when called:    4
  1278 ;; This function calls:
  1279 ;;		Nothing
  1280 ;; This function is called by:
  1281 ;;		_check_wash
  1282 ;; This function uses a reentrant model
  1283 ;;
  1284                           
  1285                           	psect	text9
  1286  000B74                     __ptext9:
  1287                           	callstack 0
  1288  000B74                     _run_wash:
  1289                           	callstack 23
  1290  000B74                     
  1291                           ;tasks.c: 108: void run_wash(clothes_control_t clothes_washing);tasks.c: 109: {;tasks.c:
      +                           111:    if (counter_wash < 2000)
  1292  000B74  0ED0               	movlw	208
  1293  000B76  5C31               	subwf	_counter_wash^0,w,c
  1294  000B78  0E07               	movlw	7
  1295  000B7A  5832               	subwfb	(_counter_wash+1)^0,w,c
  1296  000B7C  B0D8               	btfsc	status,0,c
  1297  000B7E  EFC3  F005         	goto	u7_21
  1298  000B82  EFC5  F005         	goto	u7_20
  1299  000B86                     u7_21:
  1300  000B86  EFC9  F005         	goto	l1099
  1301  000B8A                     u7_20:
  1302  000B8A                     
  1303                           ;tasks.c: 112:    {;tasks.c: 113:       counter_wash++;
  1304  000B8A  4A31               	infsnz	_counter_wash^0,f,c
  1305  000B8C  2A32               	incf	(_counter_wash+1)^0,f,c
  1306                           
  1307                           ;tasks.c: 114:    }
  1308  000B8E  EFD5  F005         	goto	l147
  1309  000B92                     l1099:
  1310                           
  1311                           ;tasks.c: 116:    {;tasks.c: 118:       clothes_washing.state = 1;
  1312                           ;stkvar	_clothes_washing @ sp[(0)+-6]
  1313  000B92  0EFE               	movlw	254
  1314  000B94  24E1               	addwf	fsr1l,w,c
  1315  000B96  6ED9               	movwf	fsr2l,c
  1316  000B98  0EFF               	movlw	255
  1317  000B9A  20E2               	addwfc	fsr1h,w,c
  1318  000B9C  6EDA               	movwf	fsr2h,c
  1319  000B9E  0E01               	movlw	1
  1320  000BA0  6EDE               	movwf	postinc2,c
  1321  000BA2  0E00               	movlw	0
  1322  000BA4  6EDD               	movwf	postdec2,c
  1323  000BA6                     
  1324                           ;tasks.c: 119:       counter_wash = 0;
  1325  000BA6  6A31               	clrf	_counter_wash^0,c
  1326  000BA8  6A32               	clrf	(_counter_wash+1)^0,c
  1327  000BAA                     l147:
  1328                           
  1329                           ; _run_wash: autosize = 0, savesize = 0, parsavesize = 0, tempsize = 0 parsize = 6, args
      +                          ize = 6, vargsize = 0
  1330  000BAA  0EFA               	movlw	250
  1331  000BAC  26E1               	addwf	fsr1l,f,c
  1332  000BAE  0EFF               	movlw	255
  1333  000BB0  22E2               	addwfc	fsr1h,f,c
  1334  000BB2  0012               	return		;funcret
  1335  000BB4                     __end_of_run_wash:
  1336                           	callstack 0
  1337                           
  1338 ;; *************** function _IRQ_Timer0 *****************
  1339 ;; Defined at:
  1340 ;;		line 45 in file "timer.c"
  1341 ;; Parameters:    Size  Location     Type
  1342 ;;		None
  1343 ;; Auto vars:     Size  Location     Type
  1344 ;;  i               1    0        unsigned char 
  1345 ;; Return value:  Size  Location     Type
  1346 ;;                  1    wreg      void 
  1347 ;; Registers used:
  1348 ;;		wreg, fsr1l, fsr1h, fsr2l, fsr2h, status,2, status,0, btemp, btemp+1, btemp+8, btemp+9, btemp+10, btemp+11, prodl, p
      +rodh
  1349 ;; Tracked objects:
  1350 ;;		On entry : 0/0
  1351 ;;		On exit  : 0/0
  1352 ;;		Unchanged: 0/0
  1353 ;; Data sizes:     COMRAM   BANK0   BANK1   BANK2   BANK3   BANK4   BANK5
  1354 ;;      Params:         0       0       0       0       0       0       0
  1355 ;;      Locals:         0       0       0       0       0       0       0
  1356 ;;      Temps:         14       0       0       0       0       0       0
  1357 ;;      Totals:        14       0       0       0       0       0       0
  1358 ;;Total ram usage:       14 bytes
  1359 ;; Hardware stack levels used:    1
  1360 ;; Hardware stack levels required when called:    3
  1361 ;; This function calls:
  1362 ;;		___wmul
  1363 ;;		_controle_delay
  1364 ;;		_scheduler
  1365 ;; This function is called by:
  1366 ;;		Interrupt level 2
  1367 ;; This function uses a non-reentrant model
  1368 ;;
  1369                           
  1370                           	psect	intcode
  1371  000008                     __pintcode:
  1372                           	callstack 0
  1373  000008                     _IRQ_Timer0:
  1374                           	callstack 23
  1375                           
  1376                           ;incstack = 0
  1377  000008  ED0A  F000         	call	int_func,f	;refresh shadow registers
  1378                           
  1379                           	psect	intcode_body
  1380  000014                     __pintcode_body:
  1381                           	callstack 23
  1382  000014                     int_func:
  1383                           	callstack 23
  1384  000014  0006               	pop		; remove dummy address from shadow register refresh
  1385  000016  CFE1 F057          	movff	fsr1l,??_IRQ_Timer0+2
  1386  00001A  CFE2 F058          	movff	fsr1h,??_IRQ_Timer0+3
  1387  00001E  CFD9 F059          	movff	fsr2l,??_IRQ_Timer0+4
  1388  000022  CFDA F05A          	movff	fsr2h,??_IRQ_Timer0+5
  1389  000026  CFF3 F05B          	movff	prodl,??_IRQ_Timer0+6
  1390  00002A  CFF4 F05C          	movff	prodh,??_IRQ_Timer0+7
  1391  00002E  C035  F05D         	movff	btemp,??_IRQ_Timer0+8
  1392  000032  C036  F05E         	movff	btemp+1,??_IRQ_Timer0+9
  1393  000036  C03D  F05F         	movff	btemp+8,??_IRQ_Timer0+10
  1394  00003A  C03E  F060         	movff	btemp+9,??_IRQ_Timer0+11
  1395  00003E  C03F  F061         	movff	btemp+10,??_IRQ_Timer0+12
  1396  000042  C040  F062         	movff	btemp+11,??_IRQ_Timer0+13
  1397  000046  EE14  F09C         	lfsr	1,___inthi_sp
  1398  00004A                     
  1399                           ;timer.c: 47:    uint8_t i;;timer.c: 49:    INTCONbits.GIE = 0;
  1400  00004A  9EF2               	bcf	242,7,c	;volatile
  1401                           
  1402                           ;timer.c: 51:    if (INTCONbits.TMR0IF) {
  1403  00004C  A4F2               	btfss	242,2,c	;volatile
  1404  00004E  EF2B  F000         	goto	i2u27_41
  1405  000052  EF2D  F000         	goto	i2u27_40
  1406  000056                     i2u27_41:
  1407  000056  EFC3  F001         	goto	i2l251
  1408  00005A                     i2u27_40:
  1409  00005A                     
  1410                           ;timer.c: 52:       INTCONbits.TMR0IF = 0;
  1411  00005A  94F2               	bcf	242,2,c	;volatile
  1412                           
  1413                           ;timer.c: 53:       TMR0L = 0;
  1414  00005C  6AD6               	clrf	214,c	;volatile
  1415  00005E                     
  1416                           ;timer.c: 57:          quantum--;
  1417  00005E  0663               	decf	_quantum^0,f,c
  1418  000060  A0D8               	btfss	status,0,c
  1419  000062  0664               	decf	(_quantum+1)^0,f,c
  1420  000064                     
  1421                           ;timer.c: 58:          if (quantum == 0) {
  1422  000064  5063               	movf	_quantum^0,w,c
  1423  000066  1064               	iorwf	(_quantum+1)^0,w,c
  1424  000068  A4D8               	btfss	status,2,c
  1425  00006A  EF39  F000         	goto	i2u28_41
  1426  00006E  EF3B  F000         	goto	i2u28_40
  1427  000072                     i2u28_41:
  1428  000072  EFC1  F001         	goto	i2l1245
  1429  000076                     i2u28_40:
  1430  000076  0E2E               	movlw	46
  1431  000078  6EE6               	movwf	postinc1,c
  1432  00007A  0E00               	movlw	0
  1433  00007C  6EE6               	movwf	postinc1,c
  1434  00007E  C1E8  FFE6         	movff	_f_aptos+232,postinc1
  1435  000082  C1E9  FFE6         	movff	_f_aptos+233,postinc1
  1436  000086  EC20  F005         	call	___wmul	;wreg free
  1437  00008A  0E27               	movlw	low (_f_aptos+39)
  1438  00008C  2435               	addwf	btemp^0,w,c
  1439  00008E  6ED9               	movwf	fsr2l,c
  1440  000090  0E01               	movlw	high (_f_aptos+39)
  1441  000092  2036               	addwfc	(btemp+1)^0,w,c
  1442  000094  6EDA               	movwf	fsr2h,c
  1443  000096  50DE               	movf	postinc2,w,c
  1444  000098  10DE               	iorwf	postinc2,w,c
  1445  00009A  B4D8               	btfsc	status,2,c
  1446  00009C  EF52  F000         	goto	i2u29_41
  1447  0000A0  EF54  F000         	goto	i2u29_40
  1448  0000A4                     i2u29_41:
  1449  0000A4  EFDD  F000         	goto	i2l1225
  1450  0000A8                     i2u29_40:
  1451  0000A8  6A33               	clrf	_index^0,c
  1452  0000AA  6A34               	clrf	(_index+1)^0,c
  1453  0000AC  0E2E               	movlw	46
  1454  0000AE  6EE6               	movwf	postinc1,c
  1455  0000B0  0E00               	movlw	0
  1456  0000B2  6EE6               	movwf	postinc1,c
  1457  0000B4  C1E8  FFE6         	movff	_f_aptos+232,postinc1
  1458  0000B8  C1E9  FFE6         	movff	_f_aptos+233,postinc1
  1459  0000BC  EC20  F005         	call	___wmul	;wreg free
  1460  0000C0  0E02               	movlw	low (_f_aptos+2)
  1461  0000C2  2435               	addwf	btemp^0,w,c
  1462  0000C4  6ED9               	movwf	fsr2l,c
  1463  0000C6  0E01               	movlw	high (_f_aptos+2)
  1464  0000C8  2036               	addwfc	(btemp+1)^0,w,c
  1465  0000CA  6EDA               	movwf	fsr2h,c
  1466  0000CC  0E00               	movlw	0
  1467  0000CE  6EDF               	movwf	indf2,c
  1468  0000D0  0E2E               	movlw	46
  1469  0000D2  6EE6               	movwf	postinc1,c
  1470  0000D4  0E00               	movlw	0
  1471  0000D6  6EE6               	movwf	postinc1,c
  1472  0000D8  C1E8  FFE6         	movff	_f_aptos+232,postinc1
  1473  0000DC  C1E9  FFE6         	movff	_f_aptos+233,postinc1
  1474  0000E0  EC20  F005         	call	___wmul	;wreg free
  1475  0000E4  0E2A               	movlw	low (_f_aptos+42)
  1476  0000E6  2435               	addwf	btemp^0,w,c
  1477  0000E8  6ED9               	movwf	fsr2l,c
  1478  0000EA  0E01               	movlw	high (_f_aptos+42)
  1479  0000EC  2036               	addwfc	(btemp+1)^0,w,c
  1480  0000EE  6EDA               	movwf	fsr2h,c
  1481  0000F0  CFE8 FFDF          	movff	wreg,indf2	;volatile
  1482  0000F4  0E2E               	movlw	46
  1483  0000F6  6EE6               	movwf	postinc1,c
  1484  0000F8  0E00               	movlw	0
  1485  0000FA  6EE6               	movwf	postinc1,c
  1486  0000FC  C1E8  FFE6         	movff	_f_aptos+232,postinc1
  1487  000100  C1E9  FFE6         	movff	_f_aptos+233,postinc1
  1488  000104  EC20  F005         	call	___wmul	;wreg free
  1489  000108  0E29               	movlw	low (_f_aptos+41)
  1490  00010A  2435               	addwf	btemp^0,w,c
  1491  00010C  6ED9               	movwf	fsr2l,c
  1492  00010E  0E01               	movlw	high (_f_aptos+41)
  1493  000110  2036               	addwfc	(btemp+1)^0,w,c
  1494  000112  6EDA               	movwf	fsr2h,c
  1495  000114  CFE0 FFDF          	movff	bsr,indf2	;volatile
  1496  000118  0E2E               	movlw	46
  1497  00011A  6EE6               	movwf	postinc1,c
  1498  00011C  0E00               	movlw	0
  1499  00011E  6EE6               	movwf	postinc1,c
  1500  000120  C1E8  FFE6         	movff	_f_aptos+232,postinc1
  1501  000124  C1E9  FFE6         	movff	_f_aptos+233,postinc1
  1502  000128  EC20  F005         	call	___wmul	;wreg free
  1503  00012C  0E2B               	movlw	low (_f_aptos+43)
  1504  00012E  2435               	addwf	btemp^0,w,c
  1505  000130  6ED9               	movwf	fsr2l,c
  1506  000132  0E01               	movlw	high (_f_aptos+43)
  1507  000134  2036               	addwfc	(btemp+1)^0,w,c
  1508  000136  6EDA               	movwf	fsr2h,c
  1509  000138  CFD8 FFDF          	movff	status,indf2	;volatile
  1510  00013C  0E2E               	movlw	46
  1511  00013E  6EE6               	movwf	postinc1,c
  1512  000140  0E00               	movlw	0
  1513  000142  6EE6               	movwf	postinc1,c
  1514  000144  C1E8  FFE6         	movff	_f_aptos+232,postinc1
  1515  000148  C1E9  FFE6         	movff	_f_aptos+233,postinc1
  1516  00014C  EC20  F005         	call	___wmul	;wreg free
  1517  000150  0E27               	movlw	low (_f_aptos+39)
  1518  000152  2435               	addwf	btemp^0,w,c
  1519  000154  6ED9               	movwf	fsr2l,c
  1520  000156  0E01               	movlw	high (_f_aptos+39)
  1521  000158  2036               	addwfc	(btemp+1)^0,w,c
  1522  00015A  6EDA               	movwf	fsr2h,c
  1523  00015C  0E00               	movlw	0
  1524  00015E  6EDE               	movwf	postinc2,c
  1525  000160  0E00               	movlw	0
  1526  000162  6EDD               	movwf	postdec2,c
  1527  000164                     i2l226:
  1528  000164  0E2E               	movlw	46
  1529  000166  6EE6               	movwf	postinc1,c
  1530  000168  0E00               	movlw	0
  1531  00016A  6EE6               	movwf	postinc1,c
  1532  00016C  C1E8  FFE6         	movff	_f_aptos+232,postinc1
  1533  000170  C1E9  FFE6         	movff	_f_aptos+233,postinc1
  1534  000174  EC20  F005         	call	___wmul	;wreg free
  1535  000178  0E00               	movlw	low _f_aptos
  1536  00017A  6E55               	movwf	??_IRQ_Timer0^0,c
  1537  00017C  0E01               	movlw	high _f_aptos
  1538  00017E  6E56               	movwf	(??_IRQ_Timer0+1)^0,c
  1539  000180  0E07               	movlw	7
  1540  000182  2655               	addwf	??_IRQ_Timer0^0,f,c
  1541  000184  0E00               	movlw	0
  1542  000186  2256               	addwfc	(??_IRQ_Timer0+1)^0,f,c
  1543  000188  5035               	movf	btemp^0,w,c
  1544  00018A  2655               	addwf	??_IRQ_Timer0^0,f,c
  1545  00018C  5036               	movf	(btemp+1)^0,w,c
  1546  00018E  2256               	addwfc	(??_IRQ_Timer0+1)^0,f,c
  1547  000190  5033               	movf	_index^0,w,c
  1548  000192  2455               	addwf	??_IRQ_Timer0^0,w,c
  1549  000194  6ED9               	movwf	fsr2l,c
  1550  000196  5034               	movf	(_index+1)^0,w,c
  1551  000198  2056               	addwfc	(??_IRQ_Timer0+1)^0,w,c
  1552  00019A  6EDA               	movwf	fsr2h,c
  1553  00019C  CFFD FFDF          	movff	tosl,indf2	;volatile
  1554  0001A0  4A33               	infsnz	_index^0,f,c
  1555  0001A2  2A34               	incf	(_index+1)^0,f,c
  1556  0001A4  0006               	pop		;# 
  1557  0001A6  50FC               	movf	252,w,c	;volatile
  1558  0001A8  A4D8               	btfss	status,2,c
  1559  0001AA  EFD9  F000         	goto	i2u30_41
  1560  0001AE  EFDB  F000         	goto	i2u30_40
  1561  0001B2                     i2u30_41:
  1562  0001B2  EFB2  F000         	goto	i2l226
  1563  0001B6                     i2u30_40:
  1564  0001B6  EFEF  F000         	goto	i2l1227
  1565  0001BA                     i2l1225:
  1566  0001BA  0E2E               	movlw	46
  1567  0001BC  6EE6               	movwf	postinc1,c
  1568  0001BE  0E00               	movlw	0
  1569  0001C0  6EE6               	movwf	postinc1,c
  1570  0001C2  C1E8  FFE6         	movff	_f_aptos+232,postinc1
  1571  0001C6  C1E9  FFE6         	movff	_f_aptos+233,postinc1
  1572  0001CA  EC20  F005         	call	___wmul	;wreg free
  1573  0001CE  0E02               	movlw	low (_f_aptos+2)
  1574  0001D0  2435               	addwf	btemp^0,w,c
  1575  0001D2  6ED9               	movwf	fsr2l,c
  1576  0001D4  0E01               	movlw	high (_f_aptos+2)
  1577  0001D6  2036               	addwfc	(btemp+1)^0,w,c
  1578  0001D8  6EDA               	movwf	fsr2h,c
  1579  0001DA  0E00               	movlw	0
  1580  0001DC  6EDF               	movwf	indf2,c
  1581  0001DE                     i2l1227:
  1582  0001DE  EC13  F006         	call	_scheduler	;wreg free
  1583  0001E2  C035  F1E8         	movff	btemp,_f_aptos+232
  1584  0001E6  C036  F1E9         	movff	btemp+1,_f_aptos+233
  1585  0001EA  0E2E               	movlw	46
  1586  0001EC  6EE6               	movwf	postinc1,c
  1587  0001EE  0E00               	movlw	0
  1588  0001F0  6EE6               	movwf	postinc1,c
  1589  0001F2  C1E8  FFE6         	movff	_f_aptos+232,postinc1
  1590  0001F6  C1E9  FFE6         	movff	_f_aptos+233,postinc1
  1591  0001FA  EC20  F005         	call	___wmul	;wreg free
  1592  0001FE  0E27               	movlw	low (_f_aptos+39)
  1593  000200  2435               	addwf	btemp^0,w,c
  1594  000202  6ED9               	movwf	fsr2l,c
  1595  000204  0E01               	movlw	high (_f_aptos+39)
  1596  000206  2036               	addwfc	(btemp+1)^0,w,c
  1597  000208  6EDA               	movwf	fsr2h,c
  1598  00020A  50DE               	movf	postinc2,w,c
  1599  00020C  10DE               	iorwf	postinc2,w,c
  1600  00020E  A4D8               	btfss	status,2,c
  1601  000210  EF0C  F001         	goto	i2u31_41
  1602  000214  EF0E  F001         	goto	i2u31_40
  1603  000218                     i2u31_41:
  1604  000218  EF29  F001         	goto	i2l1233
  1605  00021C                     i2u31_40:
  1606  00021C  0E2E               	movlw	46
  1607  00021E  6EE6               	movwf	postinc1,c
  1608  000220  0E00               	movlw	0
  1609  000222  6EE6               	movwf	postinc1,c
  1610  000224  C1E8  FFE6         	movff	_f_aptos+232,postinc1
  1611  000228  C1E9  FFE6         	movff	_f_aptos+233,postinc1
  1612  00022C  EC20  F005         	call	___wmul	;wreg free
  1613  000230  0E05               	movlw	low (_f_aptos+5)
  1614  000232  2435               	addwf	btemp^0,w,c
  1615  000234  6ED9               	movwf	fsr2l,c
  1616  000236  0E01               	movlw	high (_f_aptos+5)
  1617  000238  2036               	addwfc	(btemp+1)^0,w,c
  1618  00023A  6EDA               	movwf	fsr2h,c
  1619  00023C  CFDE F055          	movff	postinc2,??_IRQ_Timer0
  1620  000240  CFDD F056          	movff	postdec2,??_IRQ_Timer0+1
  1621  000244  C055  FFFD         	movff	??_IRQ_Timer0,tosl	;volatile
  1622  000248  C056  FFFE         	movff	??_IRQ_Timer0+1,tosh	;volatile
  1623  00024C  6AFF               	clrf	255,c	;volatile
  1624  00024E  EFBC  F001         	goto	i2l232
  1625  000252                     i2l1233:
  1626  000252  0E2E               	movlw	46
  1627  000254  6EE6               	movwf	postinc1,c
  1628  000256  0E00               	movlw	0
  1629  000258  6EE6               	movwf	postinc1,c
  1630  00025A  C1E8  FFE6         	movff	_f_aptos+232,postinc1
  1631  00025E  C1E9  FFE6         	movff	_f_aptos+233,postinc1
  1632  000262  EC20  F005         	call	___wmul	;wreg free
  1633  000266  0E02               	movlw	low (_f_aptos+2)
  1634  000268  2435               	addwf	btemp^0,w,c
  1635  00026A  6ED9               	movwf	fsr2l,c
  1636  00026C  0E01               	movlw	high (_f_aptos+2)
  1637  00026E  2036               	addwfc	(btemp+1)^0,w,c
  1638  000270  6EDA               	movwf	fsr2h,c
  1639  000272  0E01               	movlw	1
  1640  000274  6EDF               	movwf	indf2,c
  1641  000276  0E2E               	movlw	46
  1642  000278  6EE6               	movwf	postinc1,c
  1643  00027A  0E00               	movlw	0
  1644  00027C  6EE6               	movwf	postinc1,c
  1645  00027E  C1E8  FFE6         	movff	_f_aptos+232,postinc1
  1646  000282  C1E9  FFE6         	movff	_f_aptos+233,postinc1
  1647  000286  EC20  F005         	call	___wmul	;wreg free
  1648  00028A  0E2A               	movlw	low (_f_aptos+42)
  1649  00028C  2435               	addwf	btemp^0,w,c
  1650  00028E  6ED9               	movwf	fsr2l,c
  1651  000290  0E01               	movlw	high (_f_aptos+42)
  1652  000292  2036               	addwfc	(btemp+1)^0,w,c
  1653  000294  6EDA               	movwf	fsr2h,c
  1654  000296  50DF               	movf	indf2,w,c
  1655  000298  6E55               	movwf	??_IRQ_Timer0^0,c
  1656  00029A  5055               	movf	??_IRQ_Timer0^0,w,c
  1657  00029C  0E2E               	movlw	46
  1658  00029E  6EE6               	movwf	postinc1,c
  1659  0002A0  0E00               	movlw	0
  1660  0002A2  6EE6               	movwf	postinc1,c
  1661  0002A4  C1E8  FFE6         	movff	_f_aptos+232,postinc1
  1662  0002A8  C1E9  FFE6         	movff	_f_aptos+233,postinc1
  1663  0002AC  EC20  F005         	call	___wmul	;wreg free
  1664  0002B0  0E29               	movlw	low (_f_aptos+41)
  1665  0002B2  2435               	addwf	btemp^0,w,c
  1666  0002B4  6ED9               	movwf	fsr2l,c
  1667  0002B6  0E01               	movlw	high (_f_aptos+41)
  1668  0002B8  2036               	addwfc	(btemp+1)^0,w,c
  1669  0002BA  6EDA               	movwf	fsr2h,c
  1670  0002BC  50DF               	movf	indf2,w,c
  1671  0002BE  6EE0               	movwf	224,c	;volatile
  1672  0002C0  0E2E               	movlw	46
  1673  0002C2  6EE6               	movwf	postinc1,c
  1674  0002C4  0E00               	movlw	0
  1675  0002C6  6EE6               	movwf	postinc1,c
  1676  0002C8  C1E8  FFE6         	movff	_f_aptos+232,postinc1
  1677  0002CC  C1E9  FFE6         	movff	_f_aptos+233,postinc1
  1678  0002D0  EC20  F005         	call	___wmul	;wreg free
  1679  0002D4  0E2B               	movlw	low (_f_aptos+43)
  1680  0002D6  2435               	addwf	btemp^0,w,c
  1681  0002D8  6ED9               	movwf	fsr2l,c
  1682  0002DA  0E01               	movlw	high (_f_aptos+43)
  1683  0002DC  2036               	addwfc	(btemp+1)^0,w,c
  1684  0002DE  6EDA               	movwf	fsr2h,c
  1685  0002E0  50DF               	movf	indf2,w,c
  1686  0002E2  6ED8               	movwf	216,c	;volatile
  1687  0002E4  0E2E               	movlw	46
  1688  0002E6  6EE6               	movwf	postinc1,c
  1689  0002E8  0E00               	movlw	0
  1690  0002EA  6EE6               	movwf	postinc1,c
  1691  0002EC  C1E8  FFE6         	movff	_f_aptos+232,postinc1
  1692  0002F0  C1E9  FFE6         	movff	_f_aptos+233,postinc1
  1693  0002F4  EC20  F005         	call	___wmul	;wreg free
  1694  0002F8  0E27               	movlw	low (_f_aptos+39)
  1695  0002FA  2435               	addwf	btemp^0,w,c
  1696  0002FC  6ED9               	movwf	fsr2l,c
  1697  0002FE  0E01               	movlw	high (_f_aptos+39)
  1698  000300  2036               	addwfc	(btemp+1)^0,w,c
  1699  000302  6EDA               	movwf	fsr2h,c
  1700  000304  CFDE F055          	movff	postinc2,??_IRQ_Timer0
  1701  000308  CFDD F056          	movff	postdec2,??_IRQ_Timer0+1
  1702  00030C  0EFF               	movlw	255
  1703  00030E  2455               	addwf	??_IRQ_Timer0^0,w,c
  1704  000310  6E33               	movwf	_index^0,c
  1705  000312  0EFF               	movlw	255
  1706  000314  2056               	addwfc	(??_IRQ_Timer0+1)^0,w,c
  1707  000316  6E34               	movwf	(_index+1)^0,c
  1708  000318  6AFC               	clrf	252,c	;volatile
  1709  00031A  EFB3  F001         	goto	i2l1241
  1710  00031E                     i2l234:
  1711  00031E  0005               	push		;# 
  1712  000320  0E2E               	movlw	46
  1713  000322  6EE6               	movwf	postinc1,c
  1714  000324  0E00               	movlw	0
  1715  000326  6EE6               	movwf	postinc1,c
  1716  000328  C1E8  FFE6         	movff	_f_aptos+232,postinc1
  1717  00032C  C1E9  FFE6         	movff	_f_aptos+233,postinc1
  1718  000330  EC20  F005         	call	___wmul	;wreg free
  1719  000334  0E00               	movlw	low _f_aptos
  1720  000336  6E55               	movwf	??_IRQ_Timer0^0,c
  1721  000338  0E01               	movlw	high _f_aptos
  1722  00033A  6E56               	movwf	(??_IRQ_Timer0+1)^0,c
  1723  00033C  0E07               	movlw	7
  1724  00033E  2655               	addwf	??_IRQ_Timer0^0,f,c
  1725  000340  0E00               	movlw	0
  1726  000342  2256               	addwfc	(??_IRQ_Timer0+1)^0,f,c
  1727  000344  5035               	movf	btemp^0,w,c
  1728  000346  2655               	addwf	??_IRQ_Timer0^0,f,c
  1729  000348  5036               	movf	(btemp+1)^0,w,c
  1730  00034A  2256               	addwfc	(??_IRQ_Timer0+1)^0,f,c
  1731  00034C  5033               	movf	_index^0,w,c
  1732  00034E  2455               	addwf	??_IRQ_Timer0^0,w,c
  1733  000350  6ED9               	movwf	fsr2l,c
  1734  000352  5034               	movf	(_index+1)^0,w,c
  1735  000354  2056               	addwfc	(??_IRQ_Timer0+1)^0,w,c
  1736  000356  6EDA               	movwf	fsr2h,c
  1737  000358  50DF               	movf	indf2,w,c
  1738  00035A  6EFD               	movwf	253,c	;volatile
  1739  00035C  6AFE               	clrf	254,c	;volatile
  1740  00035E  6AFF               	clrf	255,c	;volatile
  1741  000360  0633               	decf	_index^0,f,c
  1742  000362  A0D8               	btfss	status,0,c
  1743  000364  0634               	decf	(_index+1)^0,f,c
  1744  000366                     i2l1241:
  1745  000366  5033               	movf	_index^0,w,c
  1746  000368  1034               	iorwf	(_index+1)^0,w,c
  1747  00036A  A4D8               	btfss	status,2,c
  1748  00036C  EFBA  F001         	goto	i2u32_41
  1749  000370  EFBC  F001         	goto	i2u32_40
  1750  000374                     i2u32_41:
  1751  000374  EF8F  F001         	goto	i2l234
  1752  000378                     i2u32_40:
  1753  000378                     i2l232:
  1754  000378  8EF2               	bsf	242,7,c	;volatile
  1755  00037A                     
  1756                           ;timer.c: 63:             quantum = 12;
  1757  00037A  0E00               	movlw	0
  1758  00037C  6E64               	movwf	(_quantum+1)^0,c
  1759  00037E  0E0C               	movlw	12
  1760  000380  6E63               	movwf	_quantum^0,c
  1761  000382                     i2l1245:
  1762                           
  1763                           ;timer.c: 67:       if (controle_delay() && 0 == 1) {
  1764  000382  EC97  F002         	call	_controle_delay	;wreg free
  1765  000386                     i2l251:
  1766  000386  C062  F040         	movff	??_IRQ_Timer0+13,btemp+11
  1767  00038A  C061  F03F         	movff	??_IRQ_Timer0+12,btemp+10
  1768  00038E  C060  F03E         	movff	??_IRQ_Timer0+11,btemp+9
  1769  000392  C05F  F03D         	movff	??_IRQ_Timer0+10,btemp+8
  1770  000396  C05E  F036         	movff	??_IRQ_Timer0+9,btemp+1
  1771  00039A  C05D  F035         	movff	??_IRQ_Timer0+8,btemp
  1772  00039E  C05C  FFF4         	movff	??_IRQ_Timer0+7,prodh
  1773  0003A2  C05B  FFF3         	movff	??_IRQ_Timer0+6,prodl
  1774  0003A6  C05A  FFDA         	movff	??_IRQ_Timer0+5,fsr2h
  1775  0003AA  C059  FFD9         	movff	??_IRQ_Timer0+4,fsr2l
  1776  0003AE  C058  FFE2         	movff	??_IRQ_Timer0+3,fsr1h
  1777  0003B2  C057  FFE1         	movff	??_IRQ_Timer0+2,fsr1l
  1778  0003B6  0011               	retfie		f
  1779  0003B8                     __end_of_IRQ_Timer0:
  1780                           	callstack 0
  1781                           
  1782 ;; *************** function _scheduler *****************
  1783 ;; Defined at:
  1784 ;;		line 11 in file "scheduler.c"
  1785 ;; Parameters:    Size  Location     Type
  1786 ;;		None
  1787 ;; Auto vars:     Size  Location     Type
  1788 ;;		None
  1789 ;; Return value:  Size  Location     Type
  1790 ;;                  2  [STACK] unsigned int 
  1791 ;; Registers used:
  1792 ;;		wreg, fsr1l, fsr1h, fsr2l, fsr2h, status,2, status,0, btemp, btemp+1, btemp+8, btemp+9, btemp+10, btemp+11, prodl, p
      +rodh
  1793 ;; Tracked objects:
  1794 ;;		On entry : 0/0
  1795 ;;		On exit  : 0/0
  1796 ;;		Unchanged: 0/0
  1797 ;; Data sizes:     COMRAM   BANK0   BANK1   BANK2   BANK3   BANK4   BANK5
  1798 ;;      Params:         0       0       0       0       0       0       0
  1799 ;;      Locals:         0       0       0       0       0       0       0
  1800 ;;      Temps:          0       0       0       0       0       0       0
  1801 ;;      Totals:         0       0       0       0       0       0       0
  1802 ;;Total ram usage:        0 bytes
  1803 ;; Hardware stack levels used:    1
  1804 ;; Hardware stack levels required when called:    2
  1805 ;; This function calls:
  1806 ;;		_rr_scheduler
  1807 ;; This function is called by:
  1808 ;;		_IRQ_Timer0
  1809 ;; This function uses a reentrant model
  1810 ;;
  1811                           
  1812                           	psect	text11
  1813  000C26                     __ptext11:
  1814                           	callstack 0
  1815  000C26                     _scheduler:
  1816                           	callstack 23
  1817  000C26                     
  1818                           ;scheduler.c: 14:    return rr_scheduler();
  1819  000C26  ECD2  F004         	call	_rr_scheduler	;wreg free
  1820  000C2A                     
  1821                           ; _scheduler: autosize = 0, savesize = 0, parsavesize = 0, tempsize = 0 parsize = 0, arg
      +                          size = 0, vargsize = 0
  1822  000C2A  0012               	return		;funcret
  1823  000C2C                     __end_of_scheduler:
  1824                           	callstack 0
  1825                           
  1826 ;; *************** function _rr_scheduler *****************
  1827 ;; Defined at:
  1828 ;;		line 20 in file "scheduler.c"
  1829 ;; Parameters:    Size  Location     Type
  1830 ;;		None
  1831 ;; Auto vars:     Size  Location     Type
  1832 ;;  next_task       2  [STACK] unsigned int 
  1833 ;; Return value:  Size  Location     Type
  1834 ;;                  2  [STACK] unsigned int 
  1835 ;; Registers used:
  1836 ;;		wreg, fsr1l, fsr1h, fsr2l, fsr2h, status,2, status,0, btemp, btemp+1, btemp+8, btemp+9, btemp+10, btemp+11, prodl, p
      +rodh
  1837 ;; Tracked objects:
  1838 ;;		On entry : 0/0
  1839 ;;		On exit  : 0/0
  1840 ;;		Unchanged: 0/0
  1841 ;; Data sizes:     COMRAM   BANK0   BANK1   BANK2   BANK3   BANK4   BANK5
  1842 ;;      Params:         0       0       0       0       0       0       0
  1843 ;;      Locals:         0       0       0       0       0       0       0
  1844 ;;      Temps:          0       0       0       0       0       0       0
  1845 ;;      Totals:         0       0       0       0       0       0       0
  1846 ;;Total ram usage:        0 bytes
  1847 ;; Hardware stack levels used:    1
  1848 ;; Hardware stack levels required when called:    1
  1849 ;; This function calls:
  1850 ;;		___lwmod
  1851 ;; This function is called by:
  1852 ;;		_scheduler
  1853 ;; This function uses a reentrant model
  1854 ;;
  1855                           
  1856                           	psect	text12
  1857  0009A4                     __ptext12:
  1858                           	callstack 0
  1859  0009A4                     _rr_scheduler:
  1860                           	callstack 0
  1861                           
  1862                           ; autosize = 2, savesize = 0, parsavesize = 0, tempsize = 0 parsize = 0, argsize = 0 var
      +                          gsize = 0, retsize = 0 argfudge = 0
  1863  0009A4  52E6               	movf	postinc1,f,c
  1864  0009A6  52E6               	movf	postinc1,f,c
  1865  0009A8                     
  1866                           ;scheduler.c: 22:    u_int next_task = f_aptos.task_running;
  1867                           ;stkvar	_next_task @ sp[(-2)+0]
  1868  0009A8  0EFE               	movlw	-2
  1869  0009AA  C1E8  FFE3         	movff	_f_aptos+232,plusw1
  1870  0009AE  0EFF               	movlw	-1
  1871  0009B0  C1E9  FFE3         	movff	_f_aptos+233,plusw1
  1872  0009B4                     l1073:
  1873                           
  1874                           ;scheduler.c: 25:    {;scheduler.c: 26:       next_task = (next_task + 1) % (f_aptos.rea
      +                          dy_queue_size + 1);
  1875  0009B4  0E01               	movlw	1
  1876  0009B6  0101               	movlb	1	; () banked
  1877  0009B8  25E6               	addwf	(_f_aptos+230)& (0+255),w,b
  1878  0009BA  6E3F               	movwf	(btemp+10)^0,c
  1879  0009BC  0E00               	movlw	0
  1880  0009BE  21E7               	addwfc	(_f_aptos+231)& (0+255),w,b
  1881  0009C0  6E40               	movwf	(btemp+11)^0,c
  1882  0009C2  C03F  FFE6         	movff	btemp+10,postinc1
  1883  0009C6  C040  FFE6         	movff	btemp+11,postinc1
  1884                           
  1885                           ;stkvar	_next_task @ sp[(-4)+0]
  1886  0009CA  0EFC               	movlw	-4
  1887  0009CC  50E3               	movf	plusw1,w,c
  1888  0009CE  0F01               	addlw	1
  1889  0009D0  6E3F               	movwf	(btemp+10)^0,c
  1890  0009D2  0EFD               	movlw	-3
  1891  0009D4  CFE3 F040          	movff	plusw1,btemp+11
  1892  0009D8  0E00               	movlw	0
  1893  0009DA  2240               	addwfc	(btemp+11)^0,f,c
  1894  0009DC  C03F  FFE6         	movff	btemp+10,postinc1
  1895  0009E0  C040  FFE6         	movff	btemp+11,postinc1
  1896  0009E4  ECF2  F003         	call	___lwmod	;wreg free
  1897                           
  1898                           ;stkvar	_next_task @ sp[(-2)+0]
  1899  0009E8  0EFE               	movlw	-2
  1900  0009EA  C035  FFE3         	movff	btemp,plusw1
  1901  0009EE  0EFF               	movlw	-1
  1902  0009F0  C036  FFE3         	movff	btemp+1,plusw1
  1903  0009F4                     
  1904                           ;scheduler.c: 27:    } while (f_aptos.ready_queue[next_task].task_state != READY);
  1905                           ;stkvar	_next_task @ sp[(-2)+0]
  1906  0009F4  0EFE               	movlw	-2
  1907  0009F6  CFE3 F03F          	movff	plusw1,btemp+10
  1908  0009FA  0EFF               	movlw	-1
  1909  0009FC  CFE3 F040          	movff	plusw1,btemp+11
  1910  000A00  0E2E               	movlw	46
  1911  000A02  023F               	mulwf	(btemp+10)^0,c
  1912  000A04  CFF3 F03D          	movff	prodl,btemp+8
  1913  000A08  CFF4 F03E          	movff	prodh,btemp+9
  1914  000A0C  0240               	mulwf	(btemp+11)^0,c
  1915  000A0E  50F3               	movf	prodl,w,c
  1916  000A10  263E               	addwf	(btemp+9)^0,f,c
  1917  000A12  0E02               	movlw	low (_f_aptos+2)
  1918  000A14  243D               	addwf	(btemp+8)^0,w,c
  1919  000A16  6ED9               	movwf	fsr2l,c
  1920  000A18  0E01               	movlw	high (_f_aptos+2)
  1921  000A1A  203E               	addwfc	(btemp+9)^0,w,c
  1922  000A1C  6EDA               	movwf	fsr2h,c
  1923  000A1E  50DF               	movf	indf2,w,c
  1924  000A20  A4D8               	btfss	status,2,c
  1925  000A22  EF15  F005         	goto	u6_41
  1926  000A26  EF17  F005         	goto	u6_40
  1927  000A2A                     u6_41:
  1928  000A2A  EFDA  F004         	goto	l1073
  1929  000A2E                     u6_40:
  1930  000A2E                     
  1931                           ;scheduler.c: 29:    return next_task;
  1932                           ;stkvar	_next_task @ sp[(-2)+0]
  1933  000A2E  0EFE               	movlw	-2
  1934  000A30  CFE3 F035          	movff	plusw1,btemp
  1935  000A34  0EFF               	movlw	-1
  1936  000A36  CFE3 F036          	movff	plusw1,btemp+1
  1937  000A3A                     
  1938                           ; _rr_scheduler: autosize = 2, savesize = 0, parsavesize = 0, tempsize = 0 parsize = 0, 
      +                          argsize = 0, vargsize = 0
  1939  000A3A  52E5               	movf	postdec1,f,c
  1940  000A3C  52E5               	movf	postdec1,f,c
  1941  000A3E  0012               	return		;funcret
  1942  000A40                     __end_of_rr_scheduler:
  1943                           	callstack 0
  1944                           
  1945 ;; *************** function ___lwmod *****************
  1946 ;; Defined at:
  1947 ;;		line 7 in file "C:\Program Files\Microchip\xc8\v2.20\pic\sources\c99\common\lwmod.c"
  1948 ;; Parameters:    Size  Location     Type
  1949 ;;  dividend        2  [STACK] unsigned int 
  1950 ;;  divisor         2  [STACK] unsigned int 
  1951 ;; Auto vars:     Size  Location     Type
  1952 ;;  counter         1  [STACK] unsigned char 
  1953 ;; Return value:  Size  Location     Type
  1954 ;;                  2  [STACK] unsigned int 
  1955 ;; Registers used:
  1956 ;;		wreg, fsr1l, fsr1h, status,2, status,0, btemp, btemp+1, btemp+8, btemp+9, btemp+10, btemp+11, prodl
  1957 ;; Tracked objects:
  1958 ;;		On entry : 3F/1
  1959 ;;		On exit  : 0/0
  1960 ;;		Unchanged: 0/0
  1961 ;; Data sizes:     COMRAM   BANK0   BANK1   BANK2   BANK3   BANK4   BANK5
  1962 ;;      Params:         0       0       0       0       0       0       0
  1963 ;;      Locals:         0       0       0       0       0       0       0
  1964 ;;      Temps:          0       0       0       0       0       0       0
  1965 ;;      Totals:         0       0       0       0       0       0       0
  1966 ;;Total ram usage:        0 bytes
  1967 ;; Hardware stack levels used:    1
  1968 ;; This function calls:
  1969 ;;		Nothing
  1970 ;; This function is called by:
  1971 ;;		_rr_scheduler
  1972 ;; This function uses a reentrant model
  1973 ;;
  1974                           
  1975                           	psect	text13
  1976  0007E4                     __ptext13:
  1977                           	callstack 0
  1978  0007E4                     ___lwmod:
  1979                           	callstack 0
  1980                           
  1981                           ; autosize = 1, savesize = 0, parsavesize = 0, tempsize = 0 parsize = 4, argsize = 4 var
      +                          gsize = 0, retsize = 0 argfudge = 0
  1982  0007E4  52E6               	movf	postinc1,f,c
  1983  0007E6                     
  1984                           ;stkvar	_divisor @ sp[(-1)+-4]
  1985  0007E6  0EFB               	movlw	-5
  1986  0007E8  CFE3 F035          	movff	plusw1,btemp
  1987  0007EC  0EFC               	movlw	-4
  1988  0007EE  50E3               	movf	plusw1,w,c
  1989  0007F0  1035               	iorwf	btemp^0,w,c
  1990  0007F2  B4D8               	btfsc	status,2,c
  1991  0007F4  EFFE  F003         	goto	u1_41
  1992  0007F8  EF00  F004         	goto	u1_40
  1993  0007FC                     u1_41:
  1994  0007FC  EF5B  F004         	goto	l1045
  1995  000800                     u1_40:
  1996  000800                     
  1997                           ;stkvar	_counter @ sp[(-1)+0]
  1998  000800  0EFF               	movlw	-1
  1999  000802  6AE3               	clrf	plusw1,c
  2000  000804  2AE3               	incf	plusw1,f,c
  2001  000806  EF16  F004         	goto	l1035
  2002  00080A                     l1031:
  2003                           
  2004                           ;stkvar	_divisor @ sp[(-1)+-4]
  2005  00080A  0EFB               	movlw	-5
  2006  00080C  50E3               	movf	plusw1,w,c
  2007  00080E  90D8               	bcf	status,0,c
  2008  000810  34E8               	rlcf	wreg,w,c
  2009  000812  6E35               	movwf	btemp^0,c
  2010  000814  0EFB               	movlw	-5
  2011  000816  C035  FFE3         	movff	btemp,plusw1
  2012  00081A  0EFC               	movlw	-4
  2013  00081C  50E3               	movf	plusw1,w,c
  2014  00081E  34E8               	rlcf	wreg,w,c
  2015  000820  6E35               	movwf	btemp^0,c
  2016  000822  0EFC               	movlw	-4
  2017  000824  C035  FFE3         	movff	btemp,plusw1
  2018  000828                     
  2019                           ;stkvar	_counter @ sp[(-1)+0]
  2020  000828  0EFF               	movlw	-1
  2021  00082A  2AE3               	incf	plusw1,f,c
  2022  00082C                     l1035:
  2023                           
  2024                           ;stkvar	_divisor @ sp[(-1)+-4]
  2025  00082C  0EFC               	movlw	-4
  2026  00082E  AEE3               	btfss	plusw1,7,c
  2027  000830  EF1C  F004         	goto	u2_41
  2028  000834  EF1E  F004         	goto	u2_40
  2029  000838                     u2_41:
  2030  000838  EF05  F004         	goto	l1031
  2031  00083C                     u2_40:
  2032  00083C                     l1037:
  2033                           
  2034                           ;stkvar	_divisor @ sp[(-1)+-4]
  2035  00083C  0EFB               	movlw	-5
  2036  00083E  CFE3 F03F          	movff	plusw1,btemp+10
  2037  000842  0EFC               	movlw	-4
  2038  000844  CFE3 F040          	movff	plusw1,btemp+11
  2039                           
  2040                           ;stkvar	_dividend @ sp[(-1)+-2]
  2041  000848  0EFD               	movlw	-3
  2042  00084A  CFE3 F03D          	movff	plusw1,btemp+8
  2043  00084E  0EFE               	movlw	-2
  2044  000850  CFE3 F03E          	movff	plusw1,btemp+9
  2045  000854  503F               	movf	(btemp+10)^0,w,c
  2046  000856  5C3D               	subwf	(btemp+8)^0,w,c
  2047  000858  5040               	movf	(btemp+11)^0,w,c
  2048  00085A  583E               	subwfb	(btemp+9)^0,w,c
  2049  00085C  A0D8               	btfss	status,0,c
  2050  00085E  EF33  F004         	goto	u3_41
  2051  000862  EF35  F004         	goto	u3_40
  2052  000866                     u3_41:
  2053  000866  EF47  F004         	goto	l1041
  2054  00086A                     u3_40:
  2055  00086A                     
  2056                           ;stkvar	_divisor @ sp[(-1)+-4]
  2057                           ;stkvar	_dividend @ sp[(-1)+-2]
  2058  00086A  0EFD               	movlw	-3
  2059  00086C  50E3               	movf	plusw1,w,c
  2060  00086E  6E35               	movwf	btemp^0,c
  2061  000870  0EFB               	movlw	-5
  2062  000872  50E3               	movf	plusw1,w,c
  2063  000874  5E35               	subwf	btemp^0,f,c
  2064  000876  0EFD               	movlw	-3
  2065  000878  C035  FFE3         	movff	btemp,plusw1
  2066  00087C  0EFE               	movlw	-2
  2067  00087E  50E3               	movf	plusw1,w,c
  2068  000880  6E35               	movwf	btemp^0,c
  2069  000882  0EFC               	movlw	-4
  2070  000884  50E3               	movf	plusw1,w,c
  2071  000886  5A35               	subwfb	btemp^0,f,c
  2072  000888  0EFE               	movlw	-2
  2073  00088A  C035  FFE3         	movff	btemp,plusw1
  2074  00088E                     l1041:
  2075                           
  2076                           ;stkvar	_divisor @ sp[(-1)+-4]
  2077  00088E  90D8               	bcf	status,0,c
  2078  000890  0EFC               	movlw	-4
  2079  000892  32E3               	rrcf	plusw1,f,c
  2080  000894  0EFB               	movlw	-5
  2081  000896  32E3               	rrcf	plusw1,f,c
  2082  000898                     
  2083                           ;stkvar	_counter @ sp[(-1)+0]
  2084  000898  0EFF               	movlw	-1
  2085  00089A  50E3               	movf	plusw1,w,c
  2086  00089C  6E35               	movwf	btemp^0,c
  2087  00089E  0E01               	movlw	1
  2088  0008A0  5E35               	subwf	btemp^0,f,c
  2089  0008A2  0EFF               	movlw	-1
  2090  0008A4  C035  FFE3         	movff	btemp,plusw1
  2091  0008A8  A4D8               	btfss	status,2,c
  2092  0008AA  EF59  F004         	goto	u4_41
  2093  0008AE  EF5B  F004         	goto	u4_40
  2094  0008B2                     u4_41:
  2095  0008B2  EF1E  F004         	goto	l1037
  2096  0008B6                     u4_40:
  2097  0008B6                     l1045:
  2098                           
  2099                           ;stkvar	_dividend @ sp[(-1)+-2]
  2100  0008B6  0EFD               	movlw	-3
  2101  0008B8  CFE3 F035          	movff	plusw1,btemp
  2102  0008BC  0EFE               	movlw	-2
  2103  0008BE  CFE3 F036          	movff	plusw1,btemp+1
  2104  0008C2                     
  2105                           ; ___lwmod: autosize = 1, savesize = 0, parsavesize = 0, tempsize = 0 parsize = 4, argsi
      +                          ze = 4, vargsize = 0
  2106  0008C2  0EFB               	movlw	251
  2107  0008C4  26E1               	addwf	fsr1l,f,c
  2108  0008C6  0EFF               	movlw	255
  2109  0008C8  22E2               	addwfc	fsr1h,f,c
  2110  0008CA  0012               	return		;funcret
  2111  0008CC                     __end_of___lwmod:
  2112                           	callstack 0
  2113                           
  2114 ;; *************** function _controle_delay *****************
  2115 ;; Defined at:
  2116 ;;		line 27 in file "timer.c"
  2117 ;; Parameters:    Size  Location     Type
  2118 ;;		None
  2119 ;; Auto vars:     Size  Location     Type
  2120 ;;  i               2  [STACK] int 
  2121 ;;  flag            2  [STACK] int 
  2122 ;; Return value:  Size  Location     Type
  2123 ;;                  2  [STACK] unsigned int 
  2124 ;; Registers used:
  2125 ;;		wreg, fsr1l, fsr1h, fsr2l, fsr2h, status,2, status,0, btemp, btemp+1, btemp+8, btemp+9, btemp+10, btemp+11, prodl, p
      +rodh
  2126 ;; Tracked objects:
  2127 ;;		On entry : 0/0
  2128 ;;		On exit  : 3F/1
  2129 ;;		Unchanged: 0/0
  2130 ;; Data sizes:     COMRAM   BANK0   BANK1   BANK2   BANK3   BANK4   BANK5
  2131 ;;      Params:         0       0       0       0       0       0       0
  2132 ;;      Locals:         0       0       0       0       0       0       0
  2133 ;;      Temps:          0       0       0       0       0       0       0
  2134 ;;      Totals:         0       0       0       0       0       0       0
  2135 ;;Total ram usage:        0 bytes
  2136 ;; Hardware stack levels used:    1
  2137 ;; This function calls:
  2138 ;;		Nothing
  2139 ;; This function is called by:
  2140 ;;		_IRQ_Timer0
  2141 ;; This function uses a reentrant model
  2142 ;;
  2143                           
  2144                           	psect	text14
  2145  00052E                     __ptext14:
  2146                           	callstack 0
  2147  00052E                     _controle_delay:
  2148                           	callstack 0
  2149                           
  2150                           ; autosize = 4, savesize = 0, parsavesize = 0, tempsize = 0 parsize = 0, argsize = 0 var
      +                          gsize = 0, retsize = 0 argfudge = 0
  2151  00052E  52E6               	movf	postinc1,f,c
  2152  000530  52E6               	movf	postinc1,f,c
  2153  000532  52E6               	movf	postinc1,f,c
  2154  000534  52E6               	movf	postinc1,f,c
  2155  000536                     
  2156                           ;timer.c: 29:    int i, flag = 0;
  2157                           ;stkvar	_flag @ sp[(-4)+2]
  2158  000536  0EFE               	movlw	-2
  2159  000538  6AE3               	clrf	plusw1,c
  2160  00053A  0EFF               	movlw	-1
  2161  00053C  6AE3               	clrf	plusw1,c
  2162                           
  2163                           ;timer.c: 32:    for (i = 0; i < f_aptos.ready_queue_size; i++) {
  2164                           ;stkvar	_i @ sp[(-4)+0]
  2165  00053E  0EFC               	movlw	-4
  2166  000540  6AE3               	clrf	plusw1,c
  2167  000542  0EFD               	movlw	-3
  2168  000544  6AE3               	clrf	plusw1,c
  2169  000546  EF29  F003         	goto	l1117
  2170  00054A                     l1105:
  2171                           
  2172                           ; BSR set to: 1
  2173                           ;timer.c: 33:       if (f_aptos.ready_queue[i].task_state == WAITING_DELAY) {
  2174                           ;stkvar	_i @ sp[(-4)+0]
  2175  00054A  0EFC               	movlw	-4
  2176  00054C  CFE3 F03F          	movff	plusw1,btemp+10
  2177  000550  0EFD               	movlw	-3
  2178  000552  CFE3 F040          	movff	plusw1,btemp+11
  2179  000556  0E2E               	movlw	46
  2180  000558  023F               	mulwf	(btemp+10)^0,c
  2181  00055A  CFF3 F03D          	movff	prodl,btemp+8
  2182  00055E  CFF4 F03E          	movff	prodh,btemp+9
  2183  000562  0240               	mulwf	(btemp+11)^0,c
  2184  000564  50F3               	movf	prodl,w,c
  2185  000566  263E               	addwf	(btemp+9)^0,f,c
  2186  000568  0E02               	movlw	low (_f_aptos+2)
  2187  00056A  243D               	addwf	(btemp+8)^0,w,c
  2188  00056C  6ED9               	movwf	fsr2l,c
  2189  00056E  0E01               	movlw	high (_f_aptos+2)
  2190  000570  203E               	addwfc	(btemp+9)^0,w,c
  2191  000572  6EDA               	movwf	fsr2h,c
  2192  000574  0E03               	movlw	3
  2193  000576  18DE               	xorwf	postinc2,w,c
  2194  000578  A4D8               	btfss	status,2,c
  2195  00057A  EFC1  F002         	goto	u8_41
  2196  00057E  EFC3  F002         	goto	u8_40
  2197  000582                     u8_41:
  2198  000582  EF1A  F003         	goto	l1115
  2199  000586                     u8_40:
  2200  000586                     
  2201                           ; BSR set to: 1
  2202                           ;timer.c: 34:          f_aptos.ready_queue[i].delay--;
  2203                           ;stkvar	_i @ sp[(-4)+0]
  2204  000586  0EFC               	movlw	-4
  2205  000588  CFE3 F03F          	movff	plusw1,btemp+10
  2206  00058C  0EFD               	movlw	-3
  2207  00058E  CFE3 F040          	movff	plusw1,btemp+11
  2208  000592  0E2E               	movlw	46
  2209  000594  023F               	mulwf	(btemp+10)^0,c
  2210  000596  CFF3 F03D          	movff	prodl,btemp+8
  2211  00059A  CFF4 F03E          	movff	prodh,btemp+9
  2212  00059E  0240               	mulwf	(btemp+11)^0,c
  2213  0005A0  50F3               	movf	prodl,w,c
  2214  0005A2  263E               	addwf	(btemp+9)^0,f,c
  2215  0005A4  0E2C               	movlw	low (_f_aptos+44)
  2216  0005A6  243D               	addwf	(btemp+8)^0,w,c
  2217  0005A8  6ED9               	movwf	fsr2l,c
  2218  0005AA  0E01               	movlw	high (_f_aptos+44)
  2219  0005AC  203E               	addwfc	(btemp+9)^0,w,c
  2220  0005AE  6EDA               	movwf	fsr2h,c
  2221  0005B0  06DE               	decf	postinc2,f,c
  2222  0005B2  0E00               	movlw	0
  2223  0005B4  5ADD               	subwfb	postdec2,f,c
  2224  0005B6                     
  2225                           ; BSR set to: 1
  2226                           ;timer.c: 35:          if (f_aptos.ready_queue[i].delay == 0) {
  2227                           ;stkvar	_i @ sp[(-4)+0]
  2228  0005B6  0EFC               	movlw	-4
  2229  0005B8  CFE3 F03F          	movff	plusw1,btemp+10
  2230  0005BC  0EFD               	movlw	-3
  2231  0005BE  CFE3 F040          	movff	plusw1,btemp+11
  2232  0005C2  0E2E               	movlw	46
  2233  0005C4  023F               	mulwf	(btemp+10)^0,c
  2234  0005C6  CFF3 F03D          	movff	prodl,btemp+8
  2235  0005CA  CFF4 F03E          	movff	prodh,btemp+9
  2236  0005CE  0240               	mulwf	(btemp+11)^0,c
  2237  0005D0  50F3               	movf	prodl,w,c
  2238  0005D2  263E               	addwf	(btemp+9)^0,f,c
  2239  0005D4  0E2C               	movlw	low (_f_aptos+44)
  2240  0005D6  243D               	addwf	(btemp+8)^0,w,c
  2241  0005D8  6ED9               	movwf	fsr2l,c
  2242  0005DA  0E01               	movlw	high (_f_aptos+44)
  2243  0005DC  203E               	addwfc	(btemp+9)^0,w,c
  2244  0005DE  6EDA               	movwf	fsr2h,c
  2245  0005E0  50DE               	movf	postinc2,w,c
  2246  0005E2  10DE               	iorwf	postinc2,w,c
  2247  0005E4  A4D8               	btfss	status,2,c
  2248  0005E6  EFF7  F002         	goto	u9_41
  2249  0005EA  EFF9  F002         	goto	u9_40
  2250  0005EE                     u9_41:
  2251  0005EE  EF1A  F003         	goto	l1115
  2252  0005F2                     u9_40:
  2253  0005F2                     
  2254                           ; BSR set to: 1
  2255                           ;timer.c: 36:             f_aptos.ready_queue[i].task_state = READY;
  2256                           ;stkvar	_i @ sp[(-4)+0]
  2257  0005F2  0EFC               	movlw	-4
  2258  0005F4  CFE3 F03F          	movff	plusw1,btemp+10
  2259  0005F8  0EFD               	movlw	-3
  2260  0005FA  CFE3 F040          	movff	plusw1,btemp+11
  2261  0005FE  0E2E               	movlw	46
  2262  000600  023F               	mulwf	(btemp+10)^0,c
  2263  000602  CFF3 F03D          	movff	prodl,btemp+8
  2264  000606  CFF4 F03E          	movff	prodh,btemp+9
  2265  00060A  0240               	mulwf	(btemp+11)^0,c
  2266  00060C  50F3               	movf	prodl,w,c
  2267  00060E  263E               	addwf	(btemp+9)^0,f,c
  2268  000610  0E02               	movlw	low (_f_aptos+2)
  2269  000612  243D               	addwf	(btemp+8)^0,w,c
  2270  000614  6ED9               	movwf	fsr2l,c
  2271  000616  0E01               	movlw	high (_f_aptos+2)
  2272  000618  203E               	addwfc	(btemp+9)^0,w,c
  2273  00061A  6EDA               	movwf	fsr2h,c
  2274  00061C  0E00               	movlw	0
  2275  00061E  6EDF               	movwf	indf2,c
  2276  000620                     
  2277                           ; BSR set to: 1
  2278                           ;timer.c: 37:             flag = 1;
  2279  000620  0E01               	movlw	1
  2280  000622  6E3F               	movwf	(btemp+10)^0,c
  2281  000624  0E00               	movlw	0
  2282  000626  6E40               	movwf	(btemp+11)^0,c
  2283                           
  2284                           ;stkvar	_flag @ sp[(-4)+2]
  2285  000628  0EFE               	movlw	-2
  2286  00062A  C03F  FFE3         	movff	btemp+10,plusw1
  2287  00062E  0EFF               	movlw	-1
  2288  000630  C040  FFE3         	movff	btemp+11,plusw1
  2289  000634                     l1115:
  2290                           
  2291                           ; BSR set to: 1
  2292                           ;timer.c: 40:    }
  2293                           ;stkvar	_i @ sp[(-4)+0]
  2294  000634  0EFC               	movlw	-4
  2295  000636  50E3               	movf	plusw1,w,c
  2296  000638  0F01               	addlw	1
  2297  00063A  6E35               	movwf	btemp^0,c
  2298  00063C  0EFC               	movlw	-4
  2299  00063E  C035  FFE3         	movff	btemp,plusw1
  2300  000642  6A35               	clrf	btemp^0,c
  2301  000644  0EFD               	movlw	-3
  2302  000646  50E3               	movf	plusw1,w,c
  2303  000648  2035               	addwfc	btemp^0,w,c
  2304  00064A  6E35               	movwf	btemp^0,c
  2305  00064C  0EFD               	movlw	-3
  2306  00064E  C035  FFE3         	movff	btemp,plusw1
  2307  000652                     l1117:
  2308                           
  2309                           ;stkvar	_i @ sp[(-4)+0]
  2310  000652  0EFC               	movlw	-4
  2311  000654  CFE3 F035          	movff	plusw1,btemp
  2312  000658  0101               	movlb	1	; () banked
  2313  00065A  51E6               	movf	(_f_aptos+230)& (0+255),w,b
  2314  00065C  5C35               	subwf	btemp^0,w,c
  2315  00065E  0EFD               	movlw	-3
  2316  000660  CFE3 F035          	movff	plusw1,btemp
  2317  000664  51E7               	movf	(_f_aptos+231)& (0+255),w,b
  2318  000666  5835               	subwfb	btemp^0,w,c
  2319  000668  A0D8               	btfss	status,0,c
  2320  00066A  EF39  F003         	goto	u10_41
  2321  00066E  EF3B  F003         	goto	u10_40
  2322  000672                     u10_41:
  2323  000672  EFA5  F002         	goto	l1105
  2324  000676                     u10_40:
  2325  000676                     
  2326                           ; BSR set to: 1
  2327                           ;timer.c: 42:    return flag;
  2328                           ;stkvar	_flag @ sp[(-4)+2]
  2329  000676  0EFE               	movlw	-2
  2330  000678  CFE3 F035          	movff	plusw1,btemp
  2331  00067C  0EFF               	movlw	-1
  2332  00067E  CFE3 F036          	movff	plusw1,btemp+1
  2333  000682                     
  2334                           ; BSR set to: 1
  2335                           ; _controle_delay: autosize = 4, savesize = 0, parsavesize = 0, tempsize = 0 parsize = 0
      +                          , argsize = 0, vargsize = 0
  2336  000682  52E5               	movf	postdec1,f,c
  2337  000684  52E5               	movf	postdec1,f,c
  2338  000686  52E5               	movf	postdec1,f,c
  2339  000688  52E5               	movf	postdec1,f,c
  2340  00068A  0012               	return		;funcret
  2341  00068C                     __end_of_controle_delay:
  2342                           	callstack 0
  2343                           
  2344 ;; *************** function ___wmul *****************
  2345 ;; Defined at:
  2346 ;;		line 15 in file "C:\Program Files\Microchip\xc8\v2.20\pic\sources\c99\common\Umul16.c"
  2347 ;; Parameters:    Size  Location     Type
  2348 ;;  multiplier      2  [STACK] unsigned int 
  2349 ;;  multiplicand    2  [STACK] unsigned int 
  2350 ;; Auto vars:     Size  Location     Type
  2351 ;;  product         2  [STACK] unsigned int 
  2352 ;; Return value:  Size  Location     Type
  2353 ;;                  2  [STACK] unsigned int 
  2354 ;; Registers used:
  2355 ;;		wreg, fsr1l, fsr1h, fsr2l, fsr2h, status,2, status,0, btemp, btemp+1, btemp+11, prodl, prodh
  2356 ;; Tracked objects:
  2357 ;;		On entry : 0/0
  2358 ;;		On exit  : 0/0
  2359 ;;		Unchanged: 0/0
  2360 ;; Data sizes:     COMRAM   BANK0   BANK1   BANK2   BANK3   BANK4   BANK5
  2361 ;;      Params:         0       0       0       0       0       0       0
  2362 ;;      Locals:         0       0       0       0       0       0       0
  2363 ;;      Temps:          0       0       0       0       0       0       0
  2364 ;;      Totals:         0       0       0       0       0       0       0
  2365 ;;Total ram usage:        0 bytes
  2366 ;; Hardware stack levels used:    1
  2367 ;; This function calls:
  2368 ;;		Nothing
  2369 ;; This function is called by:
  2370 ;;		_IRQ_Timer0
  2371 ;; This function uses a reentrant model
  2372 ;;
  2373                           
  2374                           	psect	text15
  2375  000A40                     __ptext15:
  2376                           	callstack 0
  2377  000A40                     ___wmul:
  2378                           	callstack 0
  2379                           
  2380                           ; BSR set to: 1
  2381                           ; autosize = 2, savesize = 0, parsavesize = 0, tempsize = 0 parsize = 4, argsize = 4 var
      +                          gsize = 0, retsize = 0 argfudge = 0
  2382  000A40  52E6               	movf	postinc1,f,c
  2383  000A42  52E6               	movf	postinc1,f,c
  2384  000A44                     
  2385                           ;stkvar	_multiplicand @ sp[(-2)+-4]
  2386  000A44  0EFA               	movlw	-6
  2387  000A46  CFE3 F040          	movff	plusw1,btemp+11
  2388                           
  2389                           ;stkvar	_multiplier @ sp[(-2)+-2]
  2390  000A4A  0EFC               	movlw	-4
  2391  000A4C  50E3               	movf	plusw1,w,c
  2392  000A4E  0240               	mulwf	(btemp+11)^0,c
  2393                           
  2394                           ;stkvar	_product @ sp[(-2)+0]
  2395  000A50  0EFE               	movlw	-2
  2396  000A52  CFF3 FFE3          	movff	prodl,plusw1
  2397  000A56  0EFF               	movlw	-1
  2398  000A58  CFF4 FFE3          	movff	prodh,plusw1
  2399  000A5C                     
  2400                           ;stkvar	_multiplicand @ sp[(-2)+-4]
  2401  000A5C  0EFB               	movlw	251
  2402  000A5E  24E1               	addwf	fsr1l,w,c
  2403  000A60  6ED9               	movwf	fsr2l,c
  2404  000A62  0EFF               	movlw	255
  2405  000A64  20E2               	addwfc	fsr1h,w,c
  2406  000A66  6EDA               	movwf	fsr2h,c
  2407  000A68  50DF               	movf	indf2,w,c
  2408  000A6A  6E40               	movwf	(btemp+11)^0,c
  2409                           
  2410                           ;stkvar	_multiplier @ sp[(-2)+-2]
  2411  000A6C  0EFC               	movlw	-4
  2412  000A6E  50E3               	movf	plusw1,w,c
  2413  000A70  0240               	mulwf	(btemp+11)^0,c
  2414  000A72  CFF3 FFF4          	movff	prodl,prodh
  2415  000A76  6AF3               	clrf	243,c
  2416                           
  2417                           ;stkvar	_product @ sp[(-2)+0]
  2418  000A78  50E1               	movf	fsr1l,w,c
  2419  000A7A  0FFE               	addlw	-2
  2420  000A7C  6ED9               	movwf	fsr2l,c
  2421  000A7E  50E2               	movf	fsr1h,w,c
  2422  000A80  6EDA               	movwf	fsr2h,c
  2423  000A82  0EFF               	movlw	255
  2424  000A84  22DA               	addwfc	fsr2h,f,c
  2425  000A86  50F3               	movf	243,w,c
  2426  000A88  26DE               	addwf	postinc2,f,c
  2427  000A8A  50F4               	movf	244,w,c
  2428  000A8C  22DD               	addwfc	postdec2,f,c
  2429  000A8E                     
  2430                           ;stkvar	_multiplicand @ sp[(-2)+-4]
  2431  000A8E  0EFA               	movlw	-6
  2432  000A90  CFE3 F040          	movff	plusw1,btemp+11
  2433                           
  2434                           ;stkvar	_multiplier @ sp[(-2)+-2]
  2435  000A94  0EFD               	movlw	253
  2436  000A96  24E1               	addwf	fsr1l,w,c
  2437  000A98  6ED9               	movwf	fsr2l,c
  2438  000A9A  0EFF               	movlw	255
  2439  000A9C  20E2               	addwfc	fsr1h,w,c
  2440  000A9E  6EDA               	movwf	fsr2h,c
  2441  000AA0  50DF               	movf	indf2,w,c
  2442  000AA2  0240               	mulwf	(btemp+11)^0,c
  2443  000AA4  CFF3 FFF4          	movff	prodl,prodh
  2444  000AA8  6AF3               	clrf	243,c
  2445                           
  2446                           ;stkvar	_product @ sp[(-2)+0]
  2447  000AAA  50E1               	movf	fsr1l,w,c
  2448  000AAC  0FFE               	addlw	-2
  2449  000AAE  6ED9               	movwf	fsr2l,c
  2450  000AB0  50E2               	movf	fsr1h,w,c
  2451  000AB2  6EDA               	movwf	fsr2h,c
  2452  000AB4  0EFF               	movlw	255
  2453  000AB6  22DA               	addwfc	fsr2h,f,c
  2454  000AB8  50F3               	movf	243,w,c
  2455  000ABA  26DE               	addwf	postinc2,f,c
  2456  000ABC  50F4               	movf	244,w,c
  2457  000ABE  22DD               	addwfc	postdec2,f,c
  2458  000AC0                     
  2459                           ;stkvar	_product @ sp[(-2)+0]
  2460  000AC0  0EFE               	movlw	-2
  2461  000AC2  CFE3 F035          	movff	plusw1,btemp
  2462  000AC6  0EFF               	movlw	-1
  2463  000AC8  CFE3 F036          	movff	plusw1,btemp+1
  2464  000ACC                     
  2465                           ; ___wmul: autosize = 2, savesize = 0, parsavesize = 0, tempsize = 0 parsize = 4, argsiz
      +                          e = 4, vargsize = 0
  2466  000ACC  0EFA               	movlw	250
  2467  000ACE  26E1               	addwf	fsr1l,f,c
  2468  000AD0  0EFF               	movlw	255
  2469  000AD2  22E2               	addwfc	fsr1h,f,c
  2470  000AD4  0012               	return		;funcret
  2471  000AD6                     __end_of___wmul:
  2472                           	callstack 0
  2473  0000                     
  2474                           	psect	text16
  2475  000000                     __ptext16:
  2476                           	callstack 0
  2477  000000                     
  2478                           	psect	rparam
  2479  0000                     
  2480                           	psect	temp
  2481  000035                     btemp:
  2482                           	callstack 0
  2483  000035                     	ds	32
  2484  0000                     wtemp0	set	btemp
  2485  0000                     wtemp1	set	btemp+2
  2486  0000                     wtemp2	set	btemp+4
  2487  0000                     wtemp3	set	btemp+6
  2488  0000                     wtemp4	set	btemp+8
  2489  0000                     wtemp5	set	btemp+10
  2490  0000                     wtemp8	set	btemp+1
  2491  0000                     ttemp0	set	btemp
  2492  0000                     ttemp1	set	btemp+3
  2493  0000                     ttemp2	set	btemp+6
  2494  0000                     ttemp3	set	btemp+9
  2495  0000                     ttemp5	set	btemp+1
  2496  0000                     ttemp6	set	btemp+4
  2497  0000                     ttemp7	set	btemp+8
  2498  0000                     ltemp0	set	btemp
  2499  0000                     ltemp1	set	btemp+4
  2500  0000                     ltemp2	set	btemp+8
  2501  0000                     lltemp0	set	btemp
  2502  0000                     lltemp1	set	btemp+8
  2503  0000                     lltemp2	set	btemp+16
  2504  0000                     lltemp3	set	btemp+24
  2505                           
  2506                           	psect	idloc
  2507                           
  2508                           ;Config register IDLOC0 @ 0x200000
  2509                           ;	unspecified, using default values
  2510  200000                     	org	2097152
  2511  200000  FF                 	db	255
  2512                           
  2513                           ;Config register IDLOC1 @ 0x200001
  2514                           ;	unspecified, using default values
  2515  200001                     	org	2097153
  2516  200001  FF                 	db	255
  2517                           
  2518                           ;Config register IDLOC2 @ 0x200002
  2519                           ;	unspecified, using default values
  2520  200002                     	org	2097154
  2521  200002  FF                 	db	255
  2522                           
  2523                           ;Config register IDLOC3 @ 0x200003
  2524                           ;	unspecified, using default values
  2525  200003                     	org	2097155
  2526  200003  FF                 	db	255
  2527                           
  2528                           ;Config register IDLOC4 @ 0x200004
  2529                           ;	unspecified, using default values
  2530  200004                     	org	2097156
  2531  200004  FF                 	db	255
  2532                           
  2533                           ;Config register IDLOC5 @ 0x200005
  2534                           ;	unspecified, using default values
  2535  200005                     	org	2097157
  2536  200005  FF                 	db	255
  2537                           
  2538                           ;Config register IDLOC6 @ 0x200006
  2539                           ;	unspecified, using default values
  2540  200006                     	org	2097158
  2541  200006  FF                 	db	255
  2542                           
  2543                           ;Config register IDLOC7 @ 0x200007
  2544                           ;	unspecified, using default values
  2545  200007                     	org	2097159
  2546  200007  FF                 	db	255
  2547                           
  2548                           	psect	config
  2549                           
  2550                           ; Padding undefined space
  2551  300000                     	org	3145728
  2552  300000  FF                 	db	255
  2553                           
  2554                           ;Config register CONFIG1H @ 0x300001
  2555                           ;	Oscillator Selection bits
  2556                           ;	OSC = RCIO6, External RC oscillator, port function on RA6
  2557                           ;	Fail-Safe Clock Monitor Enable bit
  2558                           ;	FCMEN = OFF, Fail-Safe Clock Monitor disabled
  2559                           ;	Internal/External Oscillator Switchover bit
  2560                           ;	IESO = OFF, Oscillator Switchover mode disabled
  2561  300001                     	org	3145729
  2562  300001  07                 	db	7
  2563                           
  2564                           ;Config register CONFIG2L @ 0x300002
  2565                           ;	Power-up Timer Enable bit
  2566                           ;	PWRT = OFF, PWRT disabled
  2567                           ;	Brown-out Reset Enable bits
  2568                           ;	BOREN = SBORDIS, Brown-out Reset enabled in hardware only (SBOREN is disabled)
  2569                           ;	Brown Out Reset Voltage bits
  2570                           ;	BORV = 3, Minimum setting
  2571  300002                     	org	3145730
  2572  300002  1F                 	db	31
  2573                           
  2574                           ;Config register CONFIG2H @ 0x300003
  2575                           ;	Watchdog Timer Enable bit
  2576                           ;	WDT = OFF, WDT disabled (control is placed on the SWDTEN bit)
  2577                           ;	Watchdog Timer Postscale Select bits
  2578                           ;	WDTPS = 32768, 1:32768
  2579  300003                     	org	3145731
  2580  300003  1E                 	db	30
  2581                           
  2582                           ; Padding undefined space
  2583  300004                     	org	3145732
  2584  300004  FF                 	db	255
  2585                           
  2586                           ;Config register CONFIG3H @ 0x300005
  2587                           ;	CCP2 MUX bit
  2588                           ;	CCP2MX = PORTC, CCP2 input/output is multiplexed with RC1
  2589                           ;	PORTB A/D Enable bit
  2590                           ;	PBADEN = ON, PORTB<4:0> pins are configured as analog input channels on Reset
  2591                           ;	Low-Power Timer1 Oscillator Enable bit
  2592                           ;	LPT1OSC = OFF, Timer1 configured for higher power operation
  2593                           ;	MCLR Pin Enable bit
  2594                           ;	MCLRE = ON, MCLR pin enabled; RE3 input pin disabled
  2595  300005                     	org	3145733
  2596  300005  83                 	db	131
  2597                           
  2598                           ;Config register CONFIG4L @ 0x300006
  2599                           ;	Stack Full/Underflow Reset Enable bit
  2600                           ;	STVREN = ON, Stack full/underflow will cause Reset
  2601                           ;	Single-Supply ICSP Enable bit
  2602                           ;	LVP = ON, Single-Supply ICSP enabled
  2603                           ;	Extended Instruction Set Enable bit
  2604                           ;	XINST = OFF, Instruction set extension and Indexed Addressing mode disabled (Legacy mo
      +                          de)
  2605                           ;	Background Debugger Enable bit
  2606                           ;	DEBUG = 0x1, unprogrammed default
  2607  300006                     	org	3145734
  2608  300006  85                 	db	133
  2609                           
  2610                           ; Padding undefined space
  2611  300007                     	org	3145735
  2612  300007  FF                 	db	255
  2613                           
  2614                           ;Config register CONFIG5L @ 0x300008
  2615                           ;	Code Protection bit
  2616                           ;	CP0 = OFF, Block 0 (000800-001FFFh) not code-protected
  2617                           ;	Code Protection bit
  2618                           ;	CP1 = OFF, Block 1 (002000-003FFFh) not code-protected
  2619                           ;	Code Protection bit
  2620                           ;	CP2 = OFF, Block 2 (004000-005FFFh) not code-protected
  2621                           ;	Code Protection bit
  2622                           ;	CP3 = OFF, Block 3 (006000-007FFFh) not code-protected
  2623  300008                     	org	3145736
  2624  300008  0F                 	db	15
  2625                           
  2626                           ;Config register CONFIG5H @ 0x300009
  2627                           ;	Boot Block Code Protection bit
  2628                           ;	CPB = OFF, Boot block (000000-0007FFh) not code-protected
  2629                           ;	Data EEPROM Code Protection bit
  2630                           ;	CPD = OFF, Data EEPROM not code-protected
  2631  300009                     	org	3145737
  2632  300009  C0                 	db	192
  2633                           
  2634                           ;Config register CONFIG6L @ 0x30000A
  2635                           ;	Write Protection bit
  2636                           ;	WRT0 = OFF, Block 0 (000800-001FFFh) not write-protected
  2637                           ;	Write Protection bit
  2638                           ;	WRT1 = OFF, Block 1 (002000-003FFFh) not write-protected
  2639                           ;	Write Protection bit
  2640                           ;	WRT2 = OFF, Block 2 (004000-005FFFh) not write-protected
  2641                           ;	Write Protection bit
  2642                           ;	WRT3 = OFF, Block 3 (006000-007FFFh) not write-protected
  2643  30000A                     	org	3145738
  2644  30000A  0F                 	db	15
  2645                           
  2646                           ;Config register CONFIG6H @ 0x30000B
  2647                           ;	Configuration Register Write Protection bit
  2648                           ;	WRTC = OFF, Configuration registers (300000-3000FFh) not write-protected
  2649                           ;	Boot Block Write Protection bit
  2650                           ;	WRTB = OFF, Boot block (000000-0007FFh) not write-protected
  2651                           ;	Data EEPROM Write Protection bit
  2652                           ;	WRTD = OFF, Data EEPROM not write-protected
  2653  30000B                     	org	3145739
  2654  30000B  E0                 	db	224
  2655                           
  2656                           ;Config register CONFIG7L @ 0x30000C
  2657                           ;	Table Read Protection bit
  2658                           ;	EBTR0 = OFF, Block 0 (000800-001FFFh) not protected from table reads executed in other
      +                           blocks
  2659                           ;	Table Read Protection bit
  2660                           ;	EBTR1 = OFF, Block 1 (002000-003FFFh) not protected from table reads executed in other
      +                           blocks
  2661                           ;	Table Read Protection bit
  2662                           ;	EBTR2 = OFF, Block 2 (004000-005FFFh) not protected from table reads executed in other
      +                           blocks
  2663                           ;	Table Read Protection bit
  2664                           ;	EBTR3 = OFF, Block 3 (006000-007FFFh) not protected from table reads executed in other
      +                           blocks
  2665  30000C                     	org	3145740
  2666  30000C  0F                 	db	15
  2667                           
  2668                           ;Config register CONFIG7H @ 0x30000D
  2669                           ;	Boot Block Table Read Protection bit
  2670                           ;	EBTRB = OFF, Boot block (000000-0007FFh) not protected from table reads executed in ot
      +                          her blocks
  2671  30000D                     	org	3145741
  2672  30000D  40                 	db	64
  2673                           tosu	equ	0xFFF
  2674                           tosh	equ	0xFFE
  2675                           tosl	equ	0xFFD
  2676                           stkptr	equ	0xFFC
  2677                           pclatu	equ	0xFFB
  2678                           pclath	equ	0xFFA
  2679                           pcl	equ	0xFF9
  2680                           tblptru	equ	0xFF8
  2681                           tblptrh	equ	0xFF7
  2682                           tblptrl	equ	0xFF6
  2683                           tablat	equ	0xFF5
  2684                           prodh	equ	0xFF4
  2685                           prodl	equ	0xFF3
  2686                           indf0	equ	0xFEF
  2687                           postinc0	equ	0xFEE
  2688                           postdec0	equ	0xFED
  2689                           preinc0	equ	0xFEC
  2690                           plusw0	equ	0xFEB
  2691                           fsr0h	equ	0xFEA
  2692                           fsr0l	equ	0xFE9
  2693                           wreg	equ	0xFE8
  2694                           indf1	equ	0xFE7
  2695                           postinc1	equ	0xFE6
  2696                           postdec1	equ	0xFE5
  2697                           preinc1	equ	0xFE4
  2698                           plusw1	equ	0xFE3
  2699                           fsr1h	equ	0xFE2
  2700                           fsr1l	equ	0xFE1
  2701                           bsr	equ	0xFE0
  2702                           indf2	equ	0xFDF
  2703                           postinc2	equ	0xFDE
  2704                           postdec2	equ	0xFDD
  2705                           preinc2	equ	0xFDC
  2706                           plusw2	equ	0xFDB
  2707                           fsr2h	equ	0xFDA
  2708                           fsr2l	equ	0xFD9
  2709                           status	equ	0xFD8

Data Sizes:
    Strings     0
    Constant    0
    Data        2
    BSS         798
    Persistent  0
    Stack       0

Auto Spaces:
    Space          Size  Autos    Used
    COMRAM           95     14      68
    BANK0           128      0       0
    BANK1           256      0     234
    BANK2           256      0       0
    BANK3           256      0       0
    BANK4           256      0       0
    BANK5           256      0       0

Pointer List with Targets:

    p.buffer	PTR unsigned char  size(2) Largest target is 512
		 -> _uDynamicHeap(BIGRAM[512]), NULL(NULL[0]), 

    p.buffer	PTR unsigned char  size(2) Largest target is 512
		 -> _uDynamicHeap(BIGRAM[512]), NULL(NULL[0]), 

    S791pipe$buffer	PTR unsigned char  size(2) Largest target is 512
		 -> _uDynamicHeap(BIGRAM[512]), NULL(NULL[0]), 

    p.buffer	PTR unsigned char  size(2) Largest target is 512
		 -> _uDynamicHeap(BIGRAM[512]), NULL(NULL[0]), 

    sp__SRAMalloc	PTR unsigned char  size(2) Largest target is 512
		 -> _uDynamicHeap(BIGRAM[512]), NULL(NULL[0]), 

    func	PTR FTN()void  size(2) Largest target is 1
		 -> task_idle(), check_ironing(), check_wash(), task_read_buttons(), 

    new_task.task_func	PTR FTN()void  size(2) Largest target is 1
		 -> task_idle(), check_ironing(), check_wash(), task_read_buttons(), 

    S34tcb$task_func	PTR FTN()void  size(2) Largest target is 1
		 -> task_idle(), check_ironing(), check_wash(), task_read_buttons(), 

    f_aptos.ready_queue.task_func	PTR FTN()void  size(2) Largest target is 1
		 -> task_idle(), check_ironing(), check_wash(), task_read_buttons(), 


Critical Paths under _main in COMRAM

    None.

Critical Paths under _task_idle in COMRAM

    None.

Critical Paths under _task_read_buttons in COMRAM

    None.

Critical Paths under _check_wash in COMRAM

    None.

Critical Paths under _task_idle in COMRAM

    None.

Critical Paths under _task_read_buttons in COMRAM

    None.

Critical Paths under _check_wash in COMRAM

    None.

Critical Paths under _IRQ_Timer0 in COMRAM

    None.

Critical Paths under _main in BANK0

    None.

Critical Paths under _task_idle in BANK0

    None.

Critical Paths under _task_read_buttons in BANK0

    None.

Critical Paths under _check_wash in BANK0

    None.

Critical Paths under _task_idle in BANK0

    None.

Critical Paths under _task_read_buttons in BANK0

    None.

Critical Paths under _check_wash in BANK0

    None.

Critical Paths under _IRQ_Timer0 in BANK0

    None.

Critical Paths under _main in BANK1

    None.

Critical Paths under _task_idle in BANK1

    None.

Critical Paths under _task_read_buttons in BANK1

    None.

Critical Paths under _check_wash in BANK1

    None.

Critical Paths under _task_idle in BANK1

    None.

Critical Paths under _task_read_buttons in BANK1

    None.

Critical Paths under _check_wash in BANK1

    None.

Critical Paths under _IRQ_Timer0 in BANK1

    None.

Critical Paths under _main in BANK2

    None.

Critical Paths under _task_idle in BANK2

    None.

Critical Paths under _task_read_buttons in BANK2

    None.

Critical Paths under _check_wash in BANK2

    None.

Critical Paths under _task_idle in BANK2

    None.

Critical Paths under _task_read_buttons in BANK2

    None.

Critical Paths under _check_wash in BANK2

    None.

Critical Paths under _IRQ_Timer0 in BANK2

    None.

Critical Paths under _main in BANK3

    None.

Critical Paths under _task_idle in BANK3

    None.

Critical Paths under _task_read_buttons in BANK3

    None.

Critical Paths under _check_wash in BANK3

    None.

Critical Paths under _task_idle in BANK3

    None.

Critical Paths under _task_read_buttons in BANK3

    None.

Critical Paths under _check_wash in BANK3

    None.

Critical Paths under _IRQ_Timer0 in BANK3

    None.

Critical Paths under _main in BANK4

    None.

Critical Paths under _task_idle in BANK4

    None.

Critical Paths under _task_read_buttons in BANK4

    None.

Critical Paths under _check_wash in BANK4

    None.

Critical Paths under _task_idle in BANK4

    None.

Critical Paths under _task_read_buttons in BANK4

    None.

Critical Paths under _check_wash in BANK4

    None.

Critical Paths under _IRQ_Timer0 in BANK4

    None.

Critical Paths under _main in BANK5

    None.

Critical Paths under _task_idle in BANK5

    None.

Critical Paths under _task_read_buttons in BANK5

    None.

Critical Paths under _check_wash in BANK5

    None.

Critical Paths under _task_idle in BANK5

    None.

Critical Paths under _task_read_buttons in BANK5

    None.

Critical Paths under _check_wash in BANK5

    None.

Critical Paths under _IRQ_Timer0 in BANK5

    None.

Call Graph Tables:

 ---------------------------------------------------------------------------------
 (Depth) Function   	        Calls       Base Space   Used Autos Params    Refs
 ---------------------------------------------------------------------------------
 (0) _main                                                 0     0      0     210
                          _os_config
                           _os_start
                        _task_create
 ---------------------------------------------------------------------------------
 (1) _os_start                                             0     0      0       0
 ---------------------------------------------------------------------------------
 (1) _os_config                                            0     0      0     105
                       _config_tasks
                      _setup_timer_0
                        _task_create
 ---------------------------------------------------------------------------------
 (1) _task_create                                         50    46      4     105
 ---------------------------------------------------------------------------------
 (2) _setup_timer_0                                        0     0      0       0
 ---------------------------------------------------------------------------------
 (2) _config_tasks                                         0     0      0       0
 ---------------------------------------------------------------------------------
 (Depth) Function   	        Calls       Base Space   Used Autos Params    Refs
 ---------------------------------------------------------------------------------
 (3) _task_idle                                            0     0      0       0
 ---------------------------------------------------------------------------------
 (Depth) Function   	        Calls       Base Space   Used Autos Params    Refs
 ---------------------------------------------------------------------------------
 (3) _task_read_buttons                                   12    12      0      90
 ---------------------------------------------------------------------------------
 (Depth) Function   	        Calls       Base Space   Used Autos Params    Refs
 ---------------------------------------------------------------------------------
 (3) _check_wash                                           8     8      0     120
                           _run_wash
 ---------------------------------------------------------------------------------
 (4) _run_wash                                             6     0      6      15
 ---------------------------------------------------------------------------------
 (Depth) Function   	        Calls       Base Space   Used Autos Params    Refs
 ---------------------------------------------------------------------------------
 (3) _task_idle                                            0     0      0       0
 ---------------------------------------------------------------------------------
 (Depth) Function   	        Calls       Base Space   Used Autos Params    Refs
 ---------------------------------------------------------------------------------
 (3) _task_read_buttons                                   12    12      0      90
 ---------------------------------------------------------------------------------
 (Depth) Function   	        Calls       Base Space   Used Autos Params    Refs
 ---------------------------------------------------------------------------------
 (3) _check_wash                                           8     8      0     120
                           _run_wash
 ---------------------------------------------------------------------------------
 (4) _run_wash                                             6     0      6      15
 ---------------------------------------------------------------------------------
 (Depth) Function   	        Calls       Base Space   Used Autos Params    Refs
 ---------------------------------------------------------------------------------
 (5) _IRQ_Timer0                                          15    15      0     345
                                              0 COMRAM    14    14      0
                             ___wmul
                     _controle_delay
                          _scheduler
 ---------------------------------------------------------------------------------
 (6) _scheduler                                            0     0      0     150
                       _rr_scheduler
 ---------------------------------------------------------------------------------
 (7) _rr_scheduler                                         2     2      0     150
                            ___lwmod
 ---------------------------------------------------------------------------------
 (8) ___lwmod                                              5     1      4     105
 ---------------------------------------------------------------------------------
 (6) _controle_delay                                       4     4      0      90
 ---------------------------------------------------------------------------------
 (6) ___wmul                                               6     2      4     105
 ---------------------------------------------------------------------------------
 Estimated maximum stack depth 8
 ---------------------------------------------------------------------------------

 Call Graph Graphs:

 _main (ROOT)
   _os_config
     _config_tasks
     _setup_timer_0
     _task_create
   _os_start
   _task_create

 _task_idle (ROOT)

 _task_read_buttons (ROOT)

 _check_wash (ROOT)
   _run_wash

 _task_idle (ROOT)

 _task_read_buttons (ROOT)

 _check_wash (ROOT)
   _run_wash

 _IRQ_Timer0 (ROOT)
   ___wmul
   _controle_delay
   _scheduler
     _rr_scheduler
       ___lwmod

 Address spaces:
Name               Size   Autos  Total    Cost      Usage
BIGRAM             5FF      0     200      17       33.4%
EEDATA             100      0       0       0        0.0%
BITBANK5           100      0       0      16        0.0%
BANK5              100      0       0      14        0.0%
BITBANK4           100      0       0      12        0.0%
BANK4              100      0       0      13        0.0%
BITBANK3           100      0       0      10        0.0%
BANK3              100      0       0      11        0.0%
BITBANK2           100      0       0       8        0.0%
BANK2              100      0       0       9        0.0%
BITBANK1           100      0       0       6        0.0%
BANK1              100      0      EA       7       91.4%
BITBANK0            80      0       0       4        0.0%
BANK0               80      0       0       5        0.0%
BITCOMRAM           5F      0       0       0        0.0%
COMRAM              5F      E      44       1       71.6%
BITSFR               0      0       0     200        0.0%
SFR                  0      0       0     200        0.0%
STACK                0      0       0       2        0.0%
NULL                 0      0       0       0        0.0%
ABS                  0      0     12E      15        0.0%
DATA                 0      0     32E       3        0.0%
CODE                 0      0       0       0        0.0%


Microchip Technology PIC18 Macro Assembler V2.20 build 20200408173844 
Symbol Table                                                                                   Sat Dec 05 20:48:54 2020

                        l21 0B22                          l22 0B22                          l80 0C06  
                        l74 099A                          l83 0BB4                          l77 0C24  
                        u51 098E     __size_of_controle_delay 015E                         l131 07D8  
                       l133 07DA                         l142 0524                         l126 0C1E  
                       l217 0682                         l129 072E                         l209 0C16  
                       l147 0BAA                         l172 0A3A                         l167 0C2A  
                       l354 0ACC                         l862 08C2                         _BSR 000FE0  
                       _TOS 000FFD                         wreg 000FE8                fp__task_idle 0000  
                      l1101 0BA6                        l1111 05F2                        l1103 0536  
                      l1031 080A                        l1113 0620                        l1105 054A  
                      l1041 088E                        l1033 0828                        l1201 050C  
                      l1123 0A44                        l1107 0586                        l1115 0634  
                      l1043 0898                        l1035 082C                        l1027 07E6  
                      l1203 0524                        l1051 08EE                        l1125 0A5C  
                      l1109 05B6                        l1117 0652                        l1037 083C  
                      l1029 0800                        l1045 08B6                        l1141 0BB4  
                      l1061 0996                        l1053 0910                        l1133 0AD6  
                      l1127 0A8E                        l1119 0676                        l1039 086A  
                      l1071 09A8                        l1151 06D4                        l1143 0694  
                      l1063 0C08                        l1055 0920                        l1135 0ADA  
                      l1129 0AC0                        l1073 09B4                        l1161 0766  
                      l1153 06E8                        l1145 06A2                        l1065 0C10  
                      l1057 0942                        l1049 08D4                        l1081 0BE0  
                      l1137 0ADE                        l1075 09F4                        l1091 0C26  
                      l1171 03C0                        l1163 077A                        l1155 06EA  
                      l1147 06B8                        l1067 0C14                        l1059 0956  
                      l1083 0BEA                        l1139 0B1E                        l1077 0A2E  
                      l1181 03EE                        l1173 03D2                        l1165 078E  
                      l1157 073C                        l1149 06C0                        l1069 0C18  
                      l1085 0BEE                        l1095 0B74                        l1191 04B0  
                      l1183 044C                        l1175 03E6                        l1167 0790  
                      l1159 0752                        l1087 0C02                        l1097 0B8A  
                      l1193 04B8                        l1185 046A                        l1169 07D0  
                      l1089 0C20                        l1099 0B92                        l1195 04CC  
                      l1187 0490                        l1189 0496                        l1197 04E8  
                      l1199 04FA                        _WREG 000FE8                        u1_40 0800  
                      u1_41 07FC                        u2_40 083C                        u2_41 0838  
                      u3_40 086A                        u3_41 0866                        u4_40 08B6  
                      u4_41 08B2                        u6_40 0A2E                        u6_41 0A2A  
                      u7_20 0B8A                        u7_21 0B86                        u8_40 0586  
                      u8_41 0582                        u9_40 05F2                        u9_41 05EE  
                      _main 0AD6                        fsr0h 000FEA                        fsr1h 000FE2  
                      fsr2h 000FDA                        fsr0l 000FE9                        indf2 000FDF  
                      fsr1l 000FE1                        fsr2l 000FD9                        btemp 0035  
                      prodh 000FF4                        prodl 000FF3                        start 000C  
              ___param_bank 000000                 ?_IRQ_Timer0 0055             __end_of___lwmod 08CC  
                     i2l232 0378                       i2l234 031E                       i2l226 0164  
                     i2l251 0386                       u10_40 0676                       u10_41 0672  
                     u11_20 0BC4                       u11_21 0BBE                       u11_26 0BC6  
                     u12_20 06A2                       u20_21 0444                       u12_21 069E  
                     u21_20 0490                       u13_20 06B8                       u21_21 048C  
                     u13_21 06B4                       u22_21 04A8                       u14_21 0722  
                     u15_20 073C                       u23_21 04DA                       u15_21 0738  
                     u24_20 04FA                       u16_20 0752                       u24_21 04F6  
                     u16_21 074E                       u25_20 050C                       u25_21 0508  
                     u17_21 07C8                       _TMR0L 000FD6                       u18_20 03D2  
                     u26_21 0512                       u18_21 03CE                       _index 0033  
                     tablat 000FF5                       ltemp0 0035                       ltemp1 0039  
                     ltemp2 003D                       plusw0 000FEB                       plusw1 000FE3  
                     plusw2 000FDB                       ttemp0 0035                       ttemp1 0038  
                     ttemp2 003B                       ttemp3 003E                       ttemp5 0036  
                     ttemp6 0039                       ttemp7 003D                       status 000FD8  
                     wtemp0 0035                       wtemp1 0037                       wtemp2 0039  
                     wtemp3 003B                       wtemp4 003D                       wtemp5 003F  
                     wtemp8 0036             __initialization 0B2A                __end_of_main 0B2A  
             __activetblptr 000000                      i2l1211 005E                      i2l1221 01A0  
                    i2l1213 0064                      i2l1231 021C                      i2l1223 01A6  
                    i2l1215 0076                      i2l1207 004A                      i2l1241 0366  
                    i2l1233 0252                      i2l1217 00A8                      i2l1225 01BA  
                    i2l1209 005A                      i2l1243 037A                      i2l1235 0318  
                    i2l1227 01DE                      i2l1219 00AC                      i2l1237 0320  
                    i2l1229 01EA                      i2l1245 0382                      i2l1239 0360  
       __size_of_IRQ_Timer0 03B0                      _STATUS 000FD8                      _STKPTR 000FFC  
                    ___wmul 0A40              _controle_delay 052E                      clear_0 0B4A  
                    clear_1 0B5C                      clear_2 0B68                __pdataCOMRAM 0063  
          __end_of_os_start 0C26                      lltemp0 0035                      lltemp1 003D  
                    lltemp2 0045                      lltemp3 004D        __end_of_config_tasks 0C20  
                    tblptrh 000FF7                      tblptrl 000FF6                      tblptru 000FF8  
          __end_of_run_wash 0BB4                  __accesstop 0080     __end_of__initialization 0B6E  
             ___rparam_used 000001              __pcstackCOMRAM 0055                  ___inthi_sp 049C  
    __end_of_controle_delay 068C                  __pbssBANK1 0100                  _check_wash 03B8  
             __uDynamicHeap 01EA          __size_of_scheduler 0006                ??_IRQ_Timer0 0055  
        __size_of_os_config 0028          __size_of_task_idle 002C           _task_read_buttons 068C  
                   i2u30_40 01B6                     i2u30_41 01B2                     i2u31_40 021C  
                   i2u31_41 0218                     i2u32_40 0378                     i2u32_41 0374  
                   i2u27_40 005A                     i2u27_41 0056                     i2u28_40 0076  
                   i2u28_41 0072                     i2u29_40 00A8                     i2u29_41 00A4  
        __end_of_IRQ_Timer0 03B8                     __Hparam 0000                     __Lparam 0000  
      __size_of_task_create 00D8             __size_of___wmul 0096                     ___lwmod 07E4  
                   _f_aptos 0100                     __pcinit 0B2A       __size_of_config_tasks 0008  
                   __ramtop 0600                     __ptext0 0AD6                     __ptext1 0C20  
                   __ptext2 0BE0                     __ptext3 08CC                     __ptext4 0C08  
                   __ptext5 0C18                     __ptext6 0BB4                     __ptext7 068C  
                   __ptext8 03B8                     __ptext9 0B74   __end_of_task_read_buttons 07E4  
                 _T0CONbits 000FD5                     _quantum 0063           __end_of_scheduler 0C2C  
            __pintcode_body 0014        end_of_initialization 0B6E           __end_of_os_config 0C08  
         __end_of_task_idle 0BE0                     int_func 0014       __end_of_setup_timer_0 0C18  
              _config_tasks 0C18                     postdec0 000FED                     postdec1 000FE5  
                   postdec2 000FDD                     postinc0 000FEE                     postinc1 000FE6  
                   postinc2 000FDE                   _PORTDbits 000F83                   _TRISDbits 000F95  
             _check_ironing 000000              __end_of___wmul 0AD6               __pidataCOMRAM 0C2C  
       __size_of_check_wash 0176  __size_of_task_read_buttons 0158         start_initialization 0B2A  
              _counter_wash 0031                 __pbssBIGRAM 01EA                 __pbssCOMRAM 0001  
                 _f_clothes 0001                   __pintcode 0008                   _flag_wash 002F  
         __size_of_os_start 0006           __size_of_run_wash 0040        __end_of_rr_scheduler 0A40  
                 _scheduler 0C26                   _os_config 0BE0                   _task_idle 0BB4  
        __end_of_check_wash 052E        fp__task_read_buttons 0000                    __Hrparam 0000  
                  __Lrparam 0000         __end_of_task_create 09A4            __size_of___lwmod 00E8  
    __size_of_setup_timer_0 0010                    __ptext11 0C26                    __ptext12 09A4  
                  __ptext13 07E4                    __ptext14 052E                    __ptext15 0A40  
                  __ptext16 0000               __size_of_main 0054                    us19_2999 03DC  
                  _os_start 0C20                    _run_wash 0B74       __size_of_rr_scheduler 009C  
                _INTCONbits 000FF2                    intlevel1 0000                    intlevel2 0000  
               _task_create 08CC               fp__check_wash 0000               _setup_timer_0 0C08  
              _rr_scheduler 09A4                  _IRQ_Timer0 0008  
