

Microchip MPLAB XC8 Assembler V2.20 build 20200408173844 
                                                                                               Thu Dec 10 23:40:00 2020

Microchip MPLAB XC8 C Compiler v2.20 (Free license) build 20200408173844 Og1 
     1                           	processor	18F4520
     2                           	fnconf	rparam,??,?,0
     3                           	pagewidth 120
     4                           	opt	flic
     5                           	psect	idataCOMRAM,global,class=CODE,delta=1,noexec
     6                           	psect	cinit,global,reloc=2,class=CODE,delta=1
     7                           	psect	bssCOMRAM,global,class=COMRAM,space=1,delta=1,lowdata,noexec
     8                           	psect	dataCOMRAM,global,class=COMRAM,space=1,delta=1,lowdata,noexec
     9                           	psect	bssBANK0,global,class=BANK0,space=1,delta=1,lowdata,noexec
    10                           	psect	bssBANK1,global,class=BANK1,space=1,delta=1,lowdata,noexec
    11                           	psect	bssBIGRAM,global,class=BIGRAM,space=1,delta=1,lowdata,noexec
    12                           	psect	cstackCOMRAM,global,class=COMRAM,space=1,delta=1,lowdata,noexec
    13                           	psect	text0,global,reloc=2,class=CODE,delta=1
    14                           	psect	text1,global,reloc=2,class=CODE,delta=1
    15                           	psect	text2,global,reloc=2,class=CODE,delta=1
    16                           	psect	text3,global,reloc=2,class=CODE,delta=1
    17                           	psect	text4,global,reloc=2,class=CODE,delta=1
    18                           	psect	text5,global,reloc=2,class=CODE,delta=1
    19                           	psect	text6,global,reloc=2,class=CODE,delta=1
    20                           	psect	text7,global,reloc=2,class=CODE,delta=1
    21                           	psect	text8,global,reloc=2,class=CODE,delta=1
    22                           	psect	text9,global,reloc=2,class=CODE,delta=1
    23                           	psect	text10,global,reloc=2,class=CODE,delta=1
    24                           	psect	text11,global,reloc=2,class=CODE,delta=1
    25                           	psect	intcode,global,reloc=2,class=CODE,delta=1
    26                           	psect	intcode_body,global,reloc=2,class=CODE,delta=1
    27                           	psect	text13,global,reloc=2,class=CODE,delta=1
    28                           	psect	text14,global,reloc=2,class=CODE,delta=1
    29                           	psect	text15,global,reloc=2,class=CODE,delta=1,group=1
    30                           	psect	text16,global,reloc=2,class=CODE,delta=1
    31                           	psect	text17,global,reloc=2,class=CODE,delta=1,group=1
    32                           	psect	intsave_regs,global,class=BIGRAM,space=1,delta=1,noexec
    33                           	psect	text18,global,reloc=2,class=CODE,delta=1,group=1
    34                           	psect	rparam,global,class=COMRAM,space=1,delta=1,noexec
    35                           	psect	temp,global,ovrld,common,class=COMRAM,space=1,delta=1
    36                           	psect	idloc,global,abs,ovrld,class=IDLOC,space=5,delta=1,noexec
    37                           	psect	config,global,abs,ovrld,class=CONFIG,space=4,delta=1,noexec
    38  0000                     
    39                           ; Version 2.20
    40                           ; Generated 12/02/2020 GMT
    41                           ; 
    42                           ; Copyright © 2020, Microchip Technology Inc. and its subsidiaries ("Microchip")
    43                           ; All rights reserved.
    44                           ; 
    45                           ; This software is developed by Microchip Technology Inc. and its subsidiaries ("Microch
      +                          ip").
    46                           ; 
    47                           ; Redistribution and use in source and binary forms, with or without modification, are
    48                           ; permitted provided that the following conditions are met:
    49                           ; 
    50                           ;     1. Redistributions of source code must retain the above copyright notice, this lis
      +                          t of
    51                           ;        conditions and the following disclaimer.
    52                           ; 
    53                           ;     2. Redistributions in binary form must reproduce the above copyright notice, this 
      +                          list
    54                           ;        of conditions and the following disclaimer in the documentation and/or other
    55                           ;        materials provided with the distribution.
    56                           ; 
    57                           ;     3. Microchip's name may not be used to endorse or promote products derived from th
      +                          is
    58                           ;        software without specific prior written permission.
    59                           ; 
    60                           ; THIS SOFTWARE IS PROVIDED BY MICROCHIP "AS IS" AND ANY EXPRESS OR IMPLIED WARRANTIES,
    61                           ; INCLUDING, BUT NOT LIMITED TO, THE IMPLIED WARRANTIES OF MERCHANTABILITY AND FITNESS F
      +                          OR
    62                           ; PURPOSE ARE DISCLAIMED.  IN NO EVENT SHALL MICROCHIP BE LIABLE FOR ANY DIRECT, INDIREC
      +                          T,
    63                           ; INCIDENTAL, SPECIAL, EXEMPLARY, OR CONSEQUENTIAL DAMAGES (INCLUDING BUT NOT LIMITED TO
    64                           ; PROCUREMENT OF SUBSTITUTE GOODS OR SERVICES; LOSS OF USE, DATA OR PROFITS; OR BUSINESS
    65                           ; INTERRUPTION) HOWSOEVER CAUSED AND ON ANY THEORY OF LIABILITY, WHETHER IN CONTRACT, ST
      +                          RICT
    66                           ; LIABILITY, OR TORT (INCLUDING NEGLIGENCE OR OTHERWISE) ARISING IN ANY WAY OUT OF THE U
      +                          SE OF
    67                           ; THIS SOFTWARE, EVEN IF ADVISED OF THE POSSIBILITY OF SUCH DAMAGE.
    68                           ; 
    69                           ; 
    70                           ; Code-generator required, PIC18F4520 Definitions
    71                           ; 
    72                           ; SFR Addresses
    73  0000                     
    74 ;;_new_task	offset	0
    75 ;;_prior	offset=-2 (param)
    76 ;;_func	offset=-4 (param)
    77 ;;_clothes	offset	0
    78 ;;_clothes	offset	6
    79 ;;_i	offset	0
    80 ;;_next_clothes	offset	2
    81 ;;_clothes_ironing	offset=-6 (param)
    82 ;;_next_task	offset	0
    83 ;;_counter	offset	0
    84 ;;_dividend	offset=-2 (param)
    85 ;;_divisor	offset=-4 (param)
    86 ;;_i	offset	0
    87 ;;_flag	offset	2
    88 ;;_product	offset	0
    89 ;;_multiplier	offset=-2 (param)
    90 ;;_multiplicand	offset=-4 (param)
    91                           
    92                           	psect	idataCOMRAM
    93  000E28                     __pidataCOMRAM:
    94                           	callstack 0
    95                           
    96                           ;initializer for _quantum
    97  000E28  000C               	dw	12
    98  0000                     _TOS	set	4093
    99  0000                     _TMR0L	set	4054
   100  0000                     _PORTCbits	set	3970
   101  0000                     _PORTDbits	set	3971
   102  0000                     _TRISCbits	set	3988
   103  0000                     _TRISDbits	set	3989
   104  0000                     _T0CONbits	set	4053
   105  0000                     _STKPTR	set	4092
   106  0000                     _STATUS	set	4056
   107  0000                     _BSR	set	4064
   108  0000                     _WREG	set	4072
   109  0000                     _INTCONbits	set	4082
   110                           
   111                           ; #config settings
   112                           
   113                           	psect	cinit
   114  000D06                     __pcinit:
   115                           	callstack 0
   116  000D06                     start_initialization:
   117                           	callstack 0
   118  000D06                     __initialization:
   119                           	callstack 0
   120                           
   121                           ; Initialize objects allocated to COMRAM (2 bytes)
   122                           ; load TBLPTR registers with __pidataCOMRAM
   123  000D06  0E28               	movlw	low __pidataCOMRAM
   124  000D08  6EF6               	movwf	tblptrl,c
   125  000D0A  0E0E               	movlw	high __pidataCOMRAM
   126  000D0C  6EF7               	movwf	tblptrh,c
   127  000D0E  0E00               	movlw	low (__pidataCOMRAM shr (0+16))
   128  000D10  6EF8               	movwf	tblptru,c
   129  000D12  0009               	tblrd		*+	;fetch initializer
   130  000D14  CFF5 F03B          	movff	tablat,__pdataCOMRAM
   131  000D18  0009               	tblrd		*+	;fetch initializer
   132  000D1A  CFF5 F03C          	movff	tablat,__pdataCOMRAM+1
   133                           
   134                           ; Clear objects allocated to BIGRAM (512 bytes)
   135  000D1E  EE01  F0EA         	lfsr	0,__pbssBIGRAM
   136  000D22  EE22 F000          	lfsr	2,512
   137  000D26                     clear_0:
   138  000D26  6AEE               	clrf	postinc0,c
   139  000D28  50DD               	movf	postdec2,w,c
   140  000D2A  50D9               	movf	fsr2l,w,c
   141  000D2C  E1FC               	bnz	clear_0
   142  000D2E  50DA               	movf	fsr2h,w,c
   143  000D30  E1FA               	bnz	clear_0
   144                           
   145                           ; Clear objects allocated to BANK1 (234 bytes)
   146  000D32  EE01  F000         	lfsr	0,__pbssBANK1
   147  000D36  0EEA               	movlw	234
   148  000D38                     clear_1:
   149  000D38  6AEE               	clrf	postinc0,c
   150  000D3A  06E8               	decf	wreg,f,c
   151  000D3C  E1FD               	bnz	clear_1
   152                           
   153                           ; Clear objects allocated to BANK0 (112 bytes)
   154  000D3E  EE00  F080         	lfsr	0,__pbssBANK0
   155  000D42  0E70               	movlw	112
   156  000D44                     clear_2:
   157  000D44  6AEE               	clrf	postinc0,c
   158  000D46  06E8               	decf	wreg,f,c
   159  000D48  E1FD               	bnz	clear_2
   160                           
   161                           ; Clear objects allocated to COMRAM (12 bytes)
   162  000D4A  EE00  F02F         	lfsr	0,__pbssCOMRAM
   163  000D4E  0E0C               	movlw	12
   164  000D50                     clear_3:
   165  000D50  6AEE               	clrf	postinc0,c
   166  000D52  06E8               	decf	wreg,f,c
   167  000D54  E1FD               	bnz	clear_3
   168  000D56                     end_of_initialization:
   169                           	callstack 0
   170  000D56                     __end_of__initialization:
   171                           	callstack 0
   172  000D56  0100               	movlb	0
   173  000D58  EFAE  F006         	goto	_main	;jump to C main() function
   174                           
   175                           	psect	bssCOMRAM
   176  00002F                     __pbssCOMRAM:
   177                           	callstack 0
   178  00002F                     _i_machine:
   179                           	callstack 0
   180  00002F                     	ds	4
   181  000033                     _w_machine:
   182                           	callstack 0
   183  000033                     	ds	4
   184  000037                     _flag:
   185                           	callstack 0
   186  000037                     	ds	2
   187  000039                     _index:
   188                           	callstack 0
   189  000039                     	ds	2
   190                           
   191                           	psect	dataCOMRAM
   192  00003B                     __pdataCOMRAM:
   193                           	callstack 0
   194  00003B                     _quantum:
   195                           	callstack 0
   196  00003B                     	ds	2
   197                           
   198                           	psect	bssBANK0
   199  000080                     __pbssBANK0:
   200                           	callstack 0
   201  000080                     _f_clothes:
   202                           	callstack 0
   203  000080                     	ds	112
   204                           
   205                           	psect	bssBANK1
   206  000100                     __pbssBANK1:
   207                           	callstack 0
   208  000100                     _f_aptos:
   209                           	callstack 0
   210  000100                     	ds	234
   211                           
   212                           	psect	bssBIGRAM
   213  0001EA                     __pbssBIGRAM:
   214                           	callstack 0
   215  0001EA                     __uDynamicHeap:
   216                           	callstack 0
   217  0001EA                     	ds	512
   218                           
   219                           	psect	cstackCOMRAM
   220  000021                     __pcstackCOMRAM:
   221                           	callstack 0
   222  000021                     ??_IRQ_Timer0:
   223                           
   224                           ; 1 bytes @ 0x0
   225  000021                     	ds	14
   226                           
   227 ;;
   228 ;;Main: autosize = 0, tempsize = 0, incstack = 0, save=0
   229 ;;
   230 ;; *************** function _main *****************
   231 ;; Defined at:
   232 ;;		line 21 in file "main.c"
   233 ;; Parameters:    Size  Location     Type
   234 ;;		None
   235 ;; Auto vars:     Size  Location     Type
   236 ;;		None
   237 ;; Return value:  Size  Location     Type
   238 ;;                  1  [STACK] void 
   239 ;; Registers used:
   240 ;;		wreg, fsr0l, fsr0h, fsr1l, fsr1h, fsr2l, fsr2h, status,2, status,0, btemp+8, btemp+9, btemp+10, btemp+11, prodl, pro
      +dh
   241 ;; Tracked objects:
   242 ;;		On entry : 0/0
   243 ;;		On exit  : 0/0
   244 ;;		Unchanged: 0/0
   245 ;; Data sizes:     COMRAM   BANK0   BANK1   BANK2   BANK3   BANK4   BANK5
   246 ;;      Params:         0       0       0       0       0       0       0
   247 ;;      Locals:         0       0       0       0       0       0       0
   248 ;;      Temps:          0       0       0       0       0       0       0
   249 ;;      Totals:         0       0       0       0       0       0       0
   250 ;;Total ram usage:        0 bytes
   251 ;; Hardware stack levels required when called:    8
   252 ;; This function calls:
   253 ;;		_os_config
   254 ;;		_os_start
   255 ;;		_task_create
   256 ;; This function is called by:
   257 ;;		Startup code after reset
   258 ;; This function uses a reentrant model
   259 ;;
   260                           
   261                           	psect	text0
   262  000D5C                     __ptext0:
   263                           	callstack 0
   264  000D5C                     _main:
   265                           	callstack 23
   266  000D5C                     
   267                           ;main.c: 24:    os_config();
   268  000D5C  ECD4  F006         	call	_os_config	;wreg free
   269                           
   270                           ;main.c: 34:    task_create(3, &task_read_buttons);
   271  000D60  0EB8               	movlw	low _task_read_buttons
   272  000D62  6EE6               	movwf	postinc1,c
   273  000D64  0E03               	movlw	high _task_read_buttons
   274  000D66  6EE6               	movwf	postinc1,c
   275  000D68  0E03               	movlw	3
   276  000D6A  6EE6               	movwf	postinc1,c
   277  000D6C  0E00               	movlw	0
   278  000D6E  6EE6               	movwf	postinc1,c
   279  000D70  EC94  F004         	call	_task_create	;wreg free
   280                           
   281                           ;main.c: 35:    task_create(2, &check_ironing);
   282  000D74  0E00               	movlw	low _check_ironing
   283  000D76  6EE6               	movwf	postinc1,c
   284  000D78  0E0A               	movlw	high _check_ironing
   285  000D7A  6EE6               	movwf	postinc1,c
   286  000D7C  0E02               	movlw	2
   287  000D7E  6EE6               	movwf	postinc1,c
   288  000D80  0E00               	movlw	0
   289  000D82  6EE6               	movwf	postinc1,c
   290  000D84  EC94  F004         	call	_task_create	;wreg free
   291                           
   292                           ;main.c: 36:    task_create(2, &check_wash);
   293  000D88  0E5A               	movlw	low _check_wash
   294  000D8A  6EE6               	movwf	postinc1,c
   295  000D8C  0E05               	movlw	high _check_wash
   296  000D8E  6EE6               	movwf	postinc1,c
   297  000D90  0E02               	movlw	2
   298  000D92  6EE6               	movwf	postinc1,c
   299  000D94  0E00               	movlw	0
   300  000D96  6EE6               	movwf	postinc1,c
   301  000D98  EC94  F004         	call	_task_create	;wreg free
   302  000D9C                     
   303                           ; BSR set to: 1
   304                           ;main.c: 39:    os_start();
   305  000D9C  EC0B  F007         	call	_os_start	;wreg free
   306  000DA0                     l25:
   307  000DA0  EFD0  F006         	goto	l25
   308  000DA4  EF06  F000         	goto	start
   309  000DA8                     __end_of_main:
   310                           	callstack 0
   311                           
   312 ;; *************** function _os_start *****************
   313 ;; Defined at:
   314 ;;		line 68 in file "kernel.c"
   315 ;; Parameters:    Size  Location     Type
   316 ;;		None
   317 ;; Auto vars:     Size  Location     Type
   318 ;;		None
   319 ;; Return value:  Size  Location     Type
   320 ;;                  1  [STACK] void 
   321 ;; Registers used:
   322 ;;		None
   323 ;; Tracked objects:
   324 ;;		On entry : 3F/1
   325 ;;		On exit  : 0/0
   326 ;;		Unchanged: 0/0
   327 ;; Data sizes:     COMRAM   BANK0   BANK1   BANK2   BANK3   BANK4   BANK5
   328 ;;      Params:         0       0       0       0       0       0       0
   329 ;;      Locals:         0       0       0       0       0       0       0
   330 ;;      Temps:          0       0       0       0       0       0       0
   331 ;;      Totals:         0       0       0       0       0       0       0
   332 ;;Total ram usage:        0 bytes
   333 ;; Hardware stack levels used:    1
   334 ;; Hardware stack levels required when called:    6
   335 ;; This function calls:
   336 ;;		Nothing
   337 ;; This function is called by:
   338 ;;		_main
   339 ;; This function uses a reentrant model
   340 ;;
   341                           
   342                           	psect	text1
   343  000E16                     __ptext1:
   344                           	callstack 0
   345  000E16                     _os_start:
   346                           	callstack 24
   347  000E16                     
   348                           ;kernel.c: 73:    INTCONbits.GIE = 1;
   349  000E16  8EF2               	bsf	242,7,c	;volatile
   350                           
   351                           ;kernel.c: 76:    T0CONbits.TMR0ON = 1;
   352  000E18  8ED5               	bsf	213,7,c	;volatile
   353  000E1A                     
   354                           ; _os_start: autosize = 0, savesize = 0, parsavesize = 0, tempsize = 0 parsize = 0, args
      +                          ize = 0, vargsize = 0
   355  000E1A  0012               	return		;funcret
   356  000E1C                     __end_of_os_start:
   357                           	callstack 0
   358                           
   359 ;; *************** function _os_config *****************
   360 ;; Defined at:
   361 ;;		line 82 in file "kernel.c"
   362 ;; Parameters:    Size  Location     Type
   363 ;;		None
   364 ;; Auto vars:     Size  Location     Type
   365 ;;		None
   366 ;; Return value:  Size  Location     Type
   367 ;;                  1  [STACK] void 
   368 ;; Registers used:
   369 ;;		wreg, fsr0l, fsr0h, fsr1l, fsr1h, fsr2l, fsr2h, status,2, status,0, btemp+8, btemp+9, btemp+10, btemp+11, prodl, pro
      +dh
   370 ;; Tracked objects:
   371 ;;		On entry : 0/0
   372 ;;		On exit  : 0/0
   373 ;;		Unchanged: 0/0
   374 ;; Data sizes:     COMRAM   BANK0   BANK1   BANK2   BANK3   BANK4   BANK5
   375 ;;      Params:         0       0       0       0       0       0       0
   376 ;;      Locals:         0       0       0       0       0       0       0
   377 ;;      Temps:          0       0       0       0       0       0       0
   378 ;;      Totals:         0       0       0       0       0       0       0
   379 ;;Total ram usage:        0 bytes
   380 ;; Hardware stack levels used:    1
   381 ;; Hardware stack levels required when called:    7
   382 ;; This function calls:
   383 ;;		_config_tasks
   384 ;;		_setup_timer_0
   385 ;;		_task_create
   386 ;; This function is called by:
   387 ;;		_main
   388 ;; This function uses a reentrant model
   389 ;;
   390                           
   391                           	psect	text2
   392  000DA8                     __ptext2:
   393                           	callstack 0
   394  000DA8                     _os_config:
   395                           	callstack 23
   396  000DA8                     
   397                           ;kernel.c: 87:    f_aptos.task_running = 0;
   398  000DA8  0101               	movlb	1	; () banked
   399  000DAA  6BE8               	clrf	(_f_aptos+232)& (0+255),b
   400  000DAC  6BE9               	clrf	(_f_aptos+233)& (0+255),b
   401                           
   402                           ;kernel.c: 88:    f_aptos.ready_queue_size = 0;
   403  000DAE  6BE6               	clrf	(_f_aptos+230)& (0+255),b
   404  000DB0  6BE7               	clrf	(_f_aptos+231)& (0+255),b
   405                           
   406                           ;kernel.c: 89:    f_clothes.fila_size = 0;
   407  000DB2  0100               	movlb	0	; () banked
   408  000DB4  6BB0               	clrf	(_f_clothes+48)& (0+255),b
   409  000DB6  6BB1               	clrf	(_f_clothes+49)& (0+255),b
   410                           
   411                           ;kernel.c: 90:    f_clothes.clothes_finished_size = 0;
   412  000DB8  6BEE               	clrf	(_f_clothes+110)& (0+255),b
   413  000DBA  6BEF               	clrf	(_f_clothes+111)& (0+255),b
   414                           
   415                           ;kernel.c: 91:    w_machine.counter = 0;
   416  000DBC  6A33               	clrf	_w_machine^0,c
   417  000DBE  6A34               	clrf	(_w_machine+1)^0,c
   418                           
   419                           ;kernel.c: 92:    i_machine.counter = 0;
   420  000DC0  6A2F               	clrf	_i_machine^0,c
   421  000DC2  6A30               	clrf	(_i_machine+1)^0,c
   422                           
   423                           ;kernel.c: 93:    w_machine.flag = 0;
   424  000DC4  6A35               	clrf	(_w_machine+2)^0,c
   425  000DC6  6A36               	clrf	(_w_machine+3)^0,c
   426                           
   427                           ;kernel.c: 94:    i_machine.flag = 0;
   428  000DC8  6A31               	clrf	(_i_machine+2)^0,c
   429  000DCA  6A32               	clrf	(_i_machine+3)^0,c
   430  000DCC                     
   431                           ; BSR set to: 0
   432                           ;kernel.c: 97:    setup_timer_0();
   433  000DCC  EC03  F007         	call	_setup_timer_0	;wreg free
   434  000DD0                     
   435                           ;kernel.c: 100:    task_create(0, &task_idle);
   436  000DD0  0E1C               	movlw	low _task_idle
   437  000DD2  6EE6               	movwf	postinc1,c
   438  000DD4  0E0E               	movlw	high _task_idle
   439  000DD6  6EE6               	movwf	postinc1,c
   440  000DD8  0E00               	movlw	0
   441  000DDA  6EE6               	movwf	postinc1,c
   442  000DDC  0E00               	movlw	0
   443  000DDE  6EE6               	movwf	postinc1,c
   444  000DE0  EC94  F004         	call	_task_create	;wreg free
   445  000DE4                     
   446                           ; BSR set to: 1
   447                           ;kernel.c: 103:    config_tasks();
   448  000DE4  ECF5  F006         	call	_config_tasks	;wreg free
   449  000DE8                     
   450                           ; _os_config: autosize = 0, savesize = 0, parsavesize = 0, tempsize = 0 parsize = 0, arg
      +                          size = 0, vargsize = 0
   451  000DE8  0012               	return		;funcret
   452  000DEA                     __end_of_os_config:
   453                           	callstack 0
   454                           
   455 ;; *************** function _task_create *****************
   456 ;; Defined at:
   457 ;;		line 50 in file "kernel.c"
   458 ;; Parameters:    Size  Location     Type
   459 ;;  prior           2  [STACK] unsigned int 
   460 ;;  func            2  [STACK] PTR FTN()void 
   461 ;;		 -> task_idle(1), check_wash(1), check_ironing(1), task_read_buttons(1), 
   462 ;; Auto vars:     Size  Location     Type
   463 ;;  new_task       46  [STACK] struct tcb
   464 ;; Return value:  Size  Location     Type
   465 ;;                  1  [STACK] void 
   466 ;; Registers used:
   467 ;;		wreg, fsr0l, fsr0h, fsr1l, fsr1h, fsr2l, fsr2h, status,2, status,0, btemp+8, btemp+9, btemp+10, btemp+11, prodl, pro
      +dh
   468 ;; Tracked objects:
   469 ;;		On entry : 0/0
   470 ;;		On exit  : 3F/1
   471 ;;		Unchanged: 0/0
   472 ;; Data sizes:     COMRAM   BANK0   BANK1   BANK2   BANK3   BANK4   BANK5
   473 ;;      Params:         0       0       0       0       0       0       0
   474 ;;      Locals:         0       0       0       0       0       0       0
   475 ;;      Temps:          0       0       0       0       0       0       0
   476 ;;      Totals:         0       0       0       0       0       0       0
   477 ;;Total ram usage:        0 bytes
   478 ;; Hardware stack levels used:    1
   479 ;; Hardware stack levels required when called:    6
   480 ;; This function calls:
   481 ;;		Nothing
   482 ;; This function is called by:
   483 ;;		_main
   484 ;;		_os_config
   485 ;; This function uses a reentrant model
   486 ;;
   487                           
   488                           	psect	text3
   489  000928                     __ptext3:
   490                           	callstack 0
   491  000928                     _task_create:
   492                           	callstack 0
   493                           
   494                           ; autosize = 46, savesize = 0, parsavesize = 0, tempsize = 0 parsize = 4, argsize = 4 va
      +                          rgsize = 0, retsize = 0 argfudge = 0
   495  000928  0E2E               	movlw	46
   496  00092A  26E1               	addwf	fsr1l,f,c
   497  00092C  0E00               	movlw	0
   498  00092E  22E2               	addwfc	fsr1h,f,c
   499  000930                     
   500                           ;kernel.c: 50: void task_create(u_int prior, task_ptr func);kernel.c: 51: {;kernel.c: 52
      +                          :    tcb_t new_task;;kernel.c: 54:    new_task.task_id = f_aptos.ready_queue_size + 1;
   501  000930  0E01               	movlw	1
   502  000932  0101               	movlb	1	; () banked
   503  000934  25E6               	addwf	(_f_aptos+230)& (0+255),w,b
   504  000936  6E0B               	movwf	(btemp+10)^0,c
   505  000938  0E00               	movlw	0
   506  00093A  21E7               	addwfc	(_f_aptos+231)& (0+255),w,b
   507  00093C  6E0C               	movwf	(btemp+11)^0,c
   508                           
   509                           ;stkvar	_new_task @ sp[(-46)+0]
   510  00093E  0ED2               	movlw	-46
   511  000940  C00B  FFE3         	movff	btemp+10,plusw1
   512  000944  0ED3               	movlw	-45
   513  000946  C00C  FFE3         	movff	btemp+11,plusw1
   514  00094A                     
   515                           ; BSR set to: 1
   516                           ;kernel.c: 55:    new_task.task_prior = prior;
   517                           ;stkvar	_prior @ sp[(-46)+-2]
   518  00094A  50E1               	movf	fsr1l,w,c
   519  00094C  0FD0               	addlw	-48
   520  00094E  6ED9               	movwf	fsr2l,c
   521  000950  50E2               	movf	fsr1h,w,c
   522  000952  6EDA               	movwf	fsr2h,c
   523  000954  0EFF               	movlw	255
   524  000956  22DA               	addwfc	fsr2h,f,c
   525                           
   526                           ;stkvar	_new_task @ sp[(-46)+0]
   527  000958  0ED5               	movlw	213
   528  00095A  24E1               	addwf	fsr1l,w,c
   529  00095C  6EE9               	movwf	fsr0l,c
   530  00095E  0EFF               	movlw	255
   531  000960  20E2               	addwfc	fsr1h,w,c
   532  000962  6EEA               	movwf	fsr0h,c
   533  000964  CFDE FFEE          	movff	postinc2,postinc0
   534  000968  CFDD FFED          	movff	postdec2,postdec0
   535  00096C                     
   536                           ; BSR set to: 1
   537                           ;kernel.c: 56:    new_task.task_state = READY;
   538                           ;stkvar	_new_task @ sp[(-46)+0]
   539  00096C  0ED4               	movlw	212
   540  00096E  24E1               	addwf	fsr1l,w,c
   541  000970  6ED9               	movwf	fsr2l,c
   542  000972  0EFF               	movlw	255
   543  000974  20E2               	addwfc	fsr1h,w,c
   544  000976  6EDA               	movwf	fsr2h,c
   545  000978  0E00               	movlw	0
   546  00097A  6EDF               	movwf	indf2,c
   547  00097C                     
   548                           ; BSR set to: 1
   549                           ;kernel.c: 57:    new_task.task_func = func;
   550                           ;stkvar	_func @ sp[(-46)+-4]
   551  00097C  50E1               	movf	fsr1l,w,c
   552  00097E  0FCE               	addlw	-50
   553  000980  6ED9               	movwf	fsr2l,c
   554  000982  50E2               	movf	fsr1h,w,c
   555  000984  6EDA               	movwf	fsr2h,c
   556  000986  0EFF               	movlw	255
   557  000988  22DA               	addwfc	fsr2h,f,c
   558                           
   559                           ;stkvar	_new_task @ sp[(-46)+0]
   560  00098A  0ED7               	movlw	215
   561  00098C  24E1               	addwf	fsr1l,w,c
   562  00098E  6EE9               	movwf	fsr0l,c
   563  000990  0EFF               	movlw	255
   564  000992  20E2               	addwfc	fsr1h,w,c
   565  000994  6EEA               	movwf	fsr0h,c
   566  000996  CFDE FFEE          	movff	postinc2,postinc0
   567  00099A  CFDD FFED          	movff	postdec2,postdec0
   568  00099E                     
   569                           ; BSR set to: 1
   570                           ;kernel.c: 58:    new_task.task_stack.size = 0;
   571                           ;stkvar	_new_task @ sp[(-46)+0]
   572  00099E  0EF9               	movlw	249
   573  0009A0  24E1               	addwf	fsr1l,w,c
   574  0009A2  6ED9               	movwf	fsr2l,c
   575  0009A4  0EFF               	movlw	255
   576  0009A6  20E2               	addwfc	fsr1h,w,c
   577  0009A8  6EDA               	movwf	fsr2h,c
   578  0009AA  0E00               	movlw	0
   579  0009AC  6EDE               	movwf	postinc2,c
   580  0009AE  0E00               	movlw	0
   581  0009B0  6EDD               	movwf	postdec2,c
   582  0009B2                     
   583                           ; BSR set to: 1
   584                           ;kernel.c: 61:    f_aptos.ready_queue[f_aptos.ready_queue_size] = new_task;
   585                           ;stkvar	_new_task @ sp[(-46)+0]
   586  0009B2  0ED2               	movlw	210
   587  0009B4  24E1               	addwf	fsr1l,w,c
   588  0009B6  6ED9               	movwf	fsr2l,c
   589  0009B8  0EFF               	movlw	255
   590  0009BA  20E2               	addwfc	fsr1h,w,c
   591  0009BC  6EDA               	movwf	fsr2h,c
   592  0009BE  EE01  F0E6         	lfsr	0,_f_aptos+230
   593  0009C2  CFEE F00B          	movff	postinc0,btemp+10
   594  0009C6  CFED F00C          	movff	postdec0,btemp+11
   595  0009CA  0E2E               	movlw	46
   596  0009CC  020B               	mulwf	(btemp+10)^0,c
   597  0009CE  CFF3 F009          	movff	prodl,btemp+8
   598  0009D2  CFF4 F00A          	movff	prodh,btemp+9
   599  0009D6  020C               	mulwf	(btemp+11)^0,c
   600  0009D8  50F3               	movf	prodl,w,c
   601  0009DA  260A               	addwf	(btemp+9)^0,f,c
   602  0009DC  0E00               	movlw	low _f_aptos
   603  0009DE  2409               	addwf	(btemp+8)^0,w,c
   604  0009E0  6EE9               	movwf	fsr0l,c
   605  0009E2  0E01               	movlw	high _f_aptos
   606  0009E4  200A               	addwfc	(btemp+9)^0,w,c
   607  0009E6  6EEA               	movwf	fsr0h,c
   608  0009E8  0E2D               	movlw	45
   609  0009EA                     u51:
   610  0009EA  CFDB FFEB          	movff	plusw2,plusw0
   611  0009EE  06E8               	decf	wreg,f,c
   612  0009F0  E2FC               	bc	u51
   613  0009F2                     
   614                           ; BSR set to: 1
   615                           ;kernel.c: 62:    f_aptos.ready_queue_size++;
   616  0009F2  4BE6               	infsnz	(_f_aptos+230)& (0+255),f,b
   617  0009F4  2BE7               	incf	(_f_aptos+231)& (0+255),f,b
   618  0009F6                     
   619                           ; BSR set to: 1
   620                           ; _task_create: autosize = 46, savesize = 0, parsavesize = 0, tempsize = 0 parsize = 4, 
      +                          argsize = 4, vargsize = 0
   621  0009F6  0ECE               	movlw	206
   622  0009F8  26E1               	addwf	fsr1l,f,c
   623  0009FA  0EFF               	movlw	255
   624  0009FC  22E2               	addwfc	fsr1h,f,c
   625  0009FE  0012               	return		;funcret
   626  000A00                     __end_of_task_create:
   627                           	callstack 0
   628                           
   629 ;; *************** function _setup_timer_0 *****************
   630 ;; Defined at:
   631 ;;		line 14 in file "timer.c"
   632 ;; Parameters:    Size  Location     Type
   633 ;;		None
   634 ;; Auto vars:     Size  Location     Type
   635 ;;		None
   636 ;; Return value:  Size  Location     Type
   637 ;;                  1  [STACK] void 
   638 ;; Registers used:
   639 ;;		wreg, status,2
   640 ;; Tracked objects:
   641 ;;		On entry : 3F/0
   642 ;;		On exit  : 0/0
   643 ;;		Unchanged: 0/0
   644 ;; Data sizes:     COMRAM   BANK0   BANK1   BANK2   BANK3   BANK4   BANK5
   645 ;;      Params:         0       0       0       0       0       0       0
   646 ;;      Locals:         0       0       0       0       0       0       0
   647 ;;      Temps:          0       0       0       0       0       0       0
   648 ;;      Totals:         0       0       0       0       0       0       0
   649 ;;Total ram usage:        0 bytes
   650 ;; Hardware stack levels used:    1
   651 ;; Hardware stack levels required when called:    6
   652 ;; This function calls:
   653 ;;		Nothing
   654 ;; This function is called by:
   655 ;;		_os_config
   656 ;; This function uses a reentrant model
   657 ;;
   658                           
   659                           	psect	text4
   660  000E06                     __ptext4:
   661                           	callstack 0
   662  000E06                     _setup_timer_0:
   663                           	callstack 23
   664  000E06                     
   665                           ;timer.c: 17:    INTCONbits.TMR0IE = 1;
   666  000E06  8AF2               	bsf	242,5,c	;volatile
   667                           
   668                           ;timer.c: 18:    INTCONbits.PEIE = 1;
   669  000E08  8CF2               	bsf	242,6,c	;volatile
   670                           
   671                           ;timer.c: 19:    T0CONbits.T0CS = 0;
   672  000E0A  9AD5               	bcf	213,5,c	;volatile
   673                           
   674                           ;timer.c: 20:    T0CONbits.PSA = 0;
   675  000E0C  96D5               	bcf	213,3,c	;volatile
   676  000E0E                     
   677                           ;timer.c: 21:    T0CONbits.T0PS = 0b111;
   678  000E0E  0E07               	movlw	7
   679  000E10  12D5               	iorwf	213,f,c	;volatile
   680  000E12                     
   681                           ;timer.c: 22:    TMR0L = 0;
   682  000E12  6AD6               	clrf	214,c	;volatile
   683  000E14                     
   684                           ; _setup_timer_0: autosize = 0, savesize = 0, parsavesize = 0, tempsize = 0 parsize = 0,
      +                           argsize = 0, vargsize = 0
   685  000E14  0012               	return		;funcret
   686  000E16                     __end_of_setup_timer_0:
   687                           	callstack 0
   688                           
   689 ;; *************** function _config_tasks *****************
   690 ;; Defined at:
   691 ;;		line 21 in file "tasks.c"
   692 ;; Parameters:    Size  Location     Type
   693 ;;		None
   694 ;; Auto vars:     Size  Location     Type
   695 ;;		None
   696 ;; Return value:  Size  Location     Type
   697 ;;                  1  [STACK] void 
   698 ;; Registers used:
   699 ;;		None
   700 ;; Tracked objects:
   701 ;;		On entry : 3F/1
   702 ;;		On exit  : 0/0
   703 ;;		Unchanged: 0/0
   704 ;; Data sizes:     COMRAM   BANK0   BANK1   BANK2   BANK3   BANK4   BANK5
   705 ;;      Params:         0       0       0       0       0       0       0
   706 ;;      Locals:         0       0       0       0       0       0       0
   707 ;;      Temps:          0       0       0       0       0       0       0
   708 ;;      Totals:         0       0       0       0       0       0       0
   709 ;;Total ram usage:        0 bytes
   710 ;; Hardware stack levels used:    1
   711 ;; Hardware stack levels required when called:    6
   712 ;; This function calls:
   713 ;;		Nothing
   714 ;; This function is called by:
   715 ;;		_os_config
   716 ;; This function uses a reentrant model
   717 ;;
   718                           
   719                           	psect	text5
   720  000DEA                     __ptext5:
   721                           	callstack 0
   722  000DEA                     _config_tasks:
   723                           	callstack 23
   724  000DEA                     
   725                           ;tasks.c: 23:    TRISDbits.RD0 = 1;
   726  000DEA  8095               	bsf	149,0,c	;volatile
   727                           
   728                           ;tasks.c: 24:    TRISDbits.RD1 = 1;
   729  000DEC  8295               	bsf	149,1,c	;volatile
   730                           
   731                           ;tasks.c: 25:    TRISDbits.RD2 = 0;
   732  000DEE  9495               	bcf	149,2,c	;volatile
   733                           
   734                           ;tasks.c: 26:    TRISDbits.RD3 = 0;
   735  000DF0  9695               	bcf	149,3,c	;volatile
   736                           
   737                           ;tasks.c: 27:    TRISDbits.RD4 = 0;
   738  000DF2  9895               	bcf	149,4,c	;volatile
   739                           
   740                           ;tasks.c: 28:    TRISCbits.RC0 = 0;
   741  000DF4  9094               	bcf	148,0,c	;volatile
   742                           
   743                           ;tasks.c: 29:    TRISCbits.RC1 = 0;
   744  000DF6  9294               	bcf	148,1,c	;volatile
   745                           
   746                           ;tasks.c: 30:    TRISCbits.RC2 = 0;
   747  000DF8  9494               	bcf	148,2,c	;volatile
   748                           
   749                           ;tasks.c: 31:    TRISCbits.RC3 = 0;
   750  000DFA  9694               	bcf	148,3,c	;volatile
   751                           
   752                           ;tasks.c: 32:    TRISCbits.RC4 = 0;
   753  000DFC  9894               	bcf	148,4,c	;volatile
   754                           
   755                           ;tasks.c: 33:    TRISCbits.RC5 = 0;
   756  000DFE  9A94               	bcf	148,5,c	;volatile
   757                           
   758                           ;tasks.c: 34:    TRISCbits.RC6 = 0;
   759  000E00  9C94               	bcf	148,6,c	;volatile
   760                           
   761                           ;tasks.c: 35:    TRISCbits.RC7 = 0;
   762  000E02  9E94               	bcf	148,7,c	;volatile
   763  000E04                     
   764                           ; _config_tasks: autosize = 0, savesize = 0, parsavesize = 0, tempsize = 0 parsize = 0, 
      +                          argsize = 0, vargsize = 0
   765  000E04  0012               	return		;funcret
   766  000E06                     __end_of_config_tasks:
   767                           	callstack 0
   768                           
   769 ;; *************** function _task_idle *****************
   770 ;; Defined at:
   771 ;;		line 109 in file "kernel.c"
   772 ;; Parameters:    Size  Location     Type
   773 ;;		None
   774 ;; Auto vars:     Size  Location     Type
   775 ;;		None
   776 ;; Return value:  Size  Location     Type
   777 ;;                  1  [STACK] void 
   778 ;; Registers used:
   779 ;;		None
   780 ;; Tracked objects:
   781 ;;		On entry : 0/0
   782 ;;		On exit  : 0/0
   783 ;;		Unchanged: 0/0
   784 ;; Data sizes:     COMRAM   BANK0   BANK1   BANK2   BANK3   BANK4   BANK5
   785 ;;      Params:         0       0       0       0       0       0       0
   786 ;;      Locals:         0       0       0       0       0       0       0
   787 ;;      Temps:          0       0       0       0       0       0       0
   788 ;;      Totals:         0       0       0       0       0       0       0
   789 ;;Total ram usage:        0 bytes
   790 ;; Hardware stack levels used:    1
   791 ;; Hardware stack levels required when called:    4
   792 ;; This function calls:
   793 ;;		Nothing
   794 ;; This function is called by:
   795 ;;		_os_config
   796 ;; This function uses a reentrant model
   797 ;;
   798                           
   799                           	psect	text6
   800  000E1C                     __ptext6:
   801                           	callstack 0
   802  000E1C                     _task_idle:
   803                           	callstack 24
   804  000E1C                     l91:
   805  000E1C  EF0E  F007         	goto	l91
   806                           
   807                           ; _task_idle: autosize = 0, savesize = 0, parsavesize = 0, tempsize = 0 parsize = 0, arg
      +                          size = 0, vargsize = 0
   808  000E20  0012               	return		;funcret
   809  000E22                     __end_of_task_idle:
   810                           	callstack 0
   811                           
   812 ;; *************** function _task_read_buttons *****************
   813 ;; Defined at:
   814 ;;		line 39 in file "tasks.c"
   815 ;; Parameters:    Size  Location     Type
   816 ;;		None
   817 ;; Auto vars:     Size  Location     Type
   818 ;;  clothes         6  [STACK] struct clothes_control
   819 ;;  clothes         6  [STACK] struct clothes_control
   820 ;; Return value:  Size  Location     Type
   821 ;;                  1  [STACK] void 
   822 ;; Registers used:
   823 ;;		wreg, fsr0l, fsr0h, fsr1l, fsr1h, fsr2l, fsr2h, status,2, status,0, btemp+8, btemp+9, btemp+10, btemp+11, prodl, pro
      +dh
   824 ;; Tracked objects:
   825 ;;		On entry : 0/0
   826 ;;		On exit  : 3F/0
   827 ;;		Unchanged: 0/0
   828 ;; Data sizes:     COMRAM   BANK0   BANK1   BANK2   BANK3   BANK4   BANK5
   829 ;;      Params:         0       0       0       0       0       0       0
   830 ;;      Locals:         0       0       0       0       0       0       0
   831 ;;      Temps:          0       0       0       0       0       0       0
   832 ;;      Totals:         0       0       0       0       0       0       0
   833 ;;Total ram usage:        0 bytes
   834 ;; Hardware stack levels used:    1
   835 ;; Hardware stack levels required when called:    4
   836 ;; This function calls:
   837 ;;		Nothing
   838 ;; This function is called by:
   839 ;;		_main
   840 ;; This function uses a reentrant model
   841 ;;
   842                           
   843                           	psect	text7
   844  0003B8                     __ptext7:
   845                           	callstack 0
   846  0003B8                     _task_read_buttons:
   847                           	callstack 0
   848                           
   849                           ; autosize = 12, savesize = 0, parsavesize = 0, tempsize = 0 parsize = 0, argsize = 0 va
      +                          rgsize = 0, retsize = 0 argfudge = 0
   850  0003B8  0E0C               	movlw	12
   851  0003BA  26E1               	addwf	fsr1l,f,c
   852  0003BC  0E00               	movlw	0
   853  0003BE  22E2               	addwfc	fsr1h,f,c
   854  0003C0                     l139:
   855                           
   856                           ;tasks.c: 42:    {;tasks.c: 43:       if (PORTDbits.RD0 == 0 && PORTDbits.RD1 == 0)
   857  0003C0  B083               	btfsc	131,0,c	;volatile
   858  0003C2  EFE5  F001         	goto	u18_21
   859  0003C6  EFE7  F001         	goto	u18_20
   860  0003CA                     u18_21:
   861  0003CA  EFF0  F001         	goto	l140
   862  0003CE                     u18_20:
   863  0003CE  B283               	btfsc	131,1,c	;volatile
   864  0003D0  EFEC  F001         	goto	u19_21
   865  0003D4  EFEE  F001         	goto	u19_20
   866  0003D8                     u19_21:
   867  0003D8  EFF0  F001         	goto	l140
   868  0003DC                     u19_20:
   869  0003DC                     
   870                           ;tasks.c: 44:       {;tasks.c: 45:          flag = 0;
   871  0003DC  6A37               	clrf	_flag^0,c
   872  0003DE  6A38               	clrf	(_flag+1)^0,c
   873  0003E0                     l140:
   874                           
   875                           ;tasks.c: 49:       if (PORTDbits.RD0 == 1 && f_clothes.fila_size < 8 && flag == 0)
   876  0003E0  A083               	btfss	131,0,c	;volatile
   877  0003E2  EFF5  F001         	goto	u20_21
   878  0003E6  EFF7  F001         	goto	u20_20
   879  0003EA                     u20_21:
   880  0003EA  EF4C  F002         	goto	l141
   881  0003EE                     u20_20:
   882  0003EE  0100               	movlb	0	; () banked
   883  0003F0  51B1               	movf	(_f_clothes+49)& (0+255),w,b
   884  0003F2  E107               	bnz	u21_21
   885  0003F4  0E08               	movlw	8
   886  0003F6  5DB0               	subwf	(_f_clothes+48)& (0+255),w,b
   887  0003F8  B0D8               	btfsc	status,0,c
   888  0003FA  EF01  F002         	goto	u21_21
   889  0003FE  EF03  F002         	goto	u21_20
   890  000402                     u21_21:
   891  000402  EF4C  F002         	goto	l141
   892  000406                     u21_20:
   893  000406                     
   894                           ; BSR set to: 0
   895  000406  5037               	movf	_flag^0,w,c
   896  000408  1038               	iorwf	(_flag+1)^0,w,c
   897  00040A  A4D8               	btfss	status,2,c
   898  00040C  EF0A  F002         	goto	u22_21
   899  000410  EF0C  F002         	goto	u22_20
   900  000414                     u22_21:
   901  000414  EF4C  F002         	goto	l141
   902  000418                     u22_20:
   903  000418                     
   904                           ; BSR set to: 0
   905                           ;tasks.c: 50:       {;tasks.c: 52:          clothes_control_t clothes;;tasks.c: 53:     
      +                               clothes.color = 0;
   906                           ;stkvar	_clothes @ sp[(-12)+6]
   907  000418  0EFA               	movlw	-6
   908  00041A  6AE3               	clrf	plusw1,c
   909  00041C  0EFB               	movlw	-5
   910  00041E  6AE3               	clrf	plusw1,c
   911  000420                     
   912                           ; BSR set to: 0
   913                           ;tasks.c: 54:          clothes.washing_cycles = 1;
   914                           ;stkvar	_clothes @ sp[(-12)+6]
   915  000420  0EFC               	movlw	252
   916  000422  24E1               	addwf	fsr1l,w,c
   917  000424  6ED9               	movwf	fsr2l,c
   918  000426  0EFF               	movlw	255
   919  000428  20E2               	addwfc	fsr1h,w,c
   920  00042A  6EDA               	movwf	fsr2h,c
   921  00042C  0E01               	movlw	1
   922  00042E  6EDE               	movwf	postinc2,c
   923  000430  0E00               	movlw	0
   924  000432  6EDD               	movwf	postdec2,c
   925  000434                     
   926                           ; BSR set to: 0
   927                           ;tasks.c: 55:          clothes.state = 0;
   928                           ;stkvar	_clothes @ sp[(-12)+6]
   929  000434  0EFE               	movlw	254
   930  000436  24E1               	addwf	fsr1l,w,c
   931  000438  6ED9               	movwf	fsr2l,c
   932  00043A  0EFF               	movlw	255
   933  00043C  20E2               	addwfc	fsr1h,w,c
   934  00043E  6EDA               	movwf	fsr2h,c
   935  000440  0E00               	movlw	0
   936  000442  6EDE               	movwf	postinc2,c
   937  000444  0E00               	movlw	0
   938  000446  6EDD               	movwf	postdec2,c
   939  000448                     
   940                           ; BSR set to: 0
   941                           ;tasks.c: 57:          f_clothes.clothes_waiting[f_clothes.fila_size] = clothes;
   942                           ;stkvar	_clothes @ sp[(-12)+6]
   943  000448  0EFA               	movlw	250
   944  00044A  24E1               	addwf	fsr1l,w,c
   945  00044C  6ED9               	movwf	fsr2l,c
   946  00044E  0EFF               	movlw	255
   947  000450  20E2               	addwfc	fsr1h,w,c
   948  000452  6EDA               	movwf	fsr2h,c
   949  000454  EE00  F0B0         	lfsr	0,_f_clothes+48
   950  000458  CFEE F00B          	movff	postinc0,btemp+10
   951  00045C  CFED F00C          	movff	postdec0,btemp+11
   952  000460  0E06               	movlw	6
   953  000462  020B               	mulwf	(btemp+10)^0,c
   954  000464  CFF3 F009          	movff	prodl,btemp+8
   955  000468  CFF4 F00A          	movff	prodh,btemp+9
   956  00046C  020C               	mulwf	(btemp+11)^0,c
   957  00046E  50F3               	movf	prodl,w,c
   958  000470  260A               	addwf	(btemp+9)^0,f,c
   959  000472  0E80               	movlw	low _f_clothes
   960  000474  2409               	addwf	(btemp+8)^0,w,c
   961  000476  6EE9               	movwf	fsr0l,c
   962  000478  0E00               	movlw	high _f_clothes
   963  00047A  200A               	addwfc	(btemp+9)^0,w,c
   964  00047C  6EEA               	movwf	fsr0h,c
   965  00047E  0E05               	movlw	5
   966  000480                     u23_21:
   967  000480  CFDB FFEB          	movff	plusw2,plusw0
   968  000484  06E8               	decf	wreg,f,c
   969  000486  E2FC               	bc	u23_21
   970  000488                     l1206:
   971                           
   972                           ; BSR set to: 0
   973                           ;tasks.c: 58:          f_clothes.fila_size++;
   974  000488  4BB0               	infsnz	(_f_clothes+48)& (0+255),f,b
   975  00048A  2BB1               	incf	(_f_clothes+49)& (0+255),f,b
   976  00048C                     
   977                           ; BSR set to: 0
   978                           ;tasks.c: 59:          flag = 1;
   979  00048C  0E00               	movlw	0
   980  00048E  6E38               	movwf	(_flag+1)^0,c
   981  000490  0E01               	movlw	1
   982  000492  6E37               	movwf	_flag^0,c
   983                           
   984                           ;tasks.c: 60:       }
   985  000494  EFE0  F001         	goto	l139
   986  000498                     l141:
   987  000498  A283               	btfss	131,1,c	;volatile
   988  00049A  EF51  F002         	goto	u24_21
   989  00049E  EF53  F002         	goto	u24_20
   990  0004A2                     u24_21:
   991  0004A2  EFE0  F001         	goto	l139
   992  0004A6                     u24_20:
   993  0004A6  0100               	movlb	0	; () banked
   994  0004A8  51B1               	movf	(_f_clothes+49)& (0+255),w,b
   995  0004AA  E107               	bnz	u25_21
   996  0004AC  0E08               	movlw	8
   997  0004AE  5DB0               	subwf	(_f_clothes+48)& (0+255),w,b
   998  0004B0  B0D8               	btfsc	status,0,c
   999  0004B2  EF5D  F002         	goto	u25_21
  1000  0004B6  EF5F  F002         	goto	u25_20
  1001  0004BA                     u25_21:
  1002  0004BA  EFE0  F001         	goto	l139
  1003  0004BE                     u25_20:
  1004  0004BE                     
  1005                           ; BSR set to: 0
  1006  0004BE  5037               	movf	_flag^0,w,c
  1007  0004C0  1038               	iorwf	(_flag+1)^0,w,c
  1008  0004C2  A4D8               	btfss	status,2,c
  1009  0004C4  EF66  F002         	goto	u26_21
  1010  0004C8  EF68  F002         	goto	u26_20
  1011  0004CC                     u26_21:
  1012  0004CC  EFE0  F001         	goto	l139
  1013  0004D0                     u26_20:
  1014  0004D0                     
  1015                           ; BSR set to: 0
  1016                           ;tasks.c: 62:       {;tasks.c: 64:          clothes_control_t clothes;;tasks.c: 65:     
      +                               clothes.color = 1;
  1017  0004D0  0E01               	movlw	1
  1018  0004D2  6E0B               	movwf	(btemp+10)^0,c
  1019  0004D4  0E00               	movlw	0
  1020  0004D6  6E0C               	movwf	(btemp+11)^0,c
  1021                           
  1022                           ;stkvar	_clothes @ sp[(-12)+0]
  1023  0004D8  0EF4               	movlw	-12
  1024  0004DA  C00B  FFE3         	movff	btemp+10,plusw1
  1025  0004DE  0EF5               	movlw	-11
  1026  0004E0  C00C  FFE3         	movff	btemp+11,plusw1
  1027  0004E4                     
  1028                           ; BSR set to: 0
  1029                           ;tasks.c: 66:          clothes.washing_cycles = 2;
  1030                           ;stkvar	_clothes @ sp[(-12)+0]
  1031  0004E4  0EF6               	movlw	246
  1032  0004E6  24E1               	addwf	fsr1l,w,c
  1033  0004E8  6ED9               	movwf	fsr2l,c
  1034  0004EA  0EFF               	movlw	255
  1035  0004EC  20E2               	addwfc	fsr1h,w,c
  1036  0004EE  6EDA               	movwf	fsr2h,c
  1037  0004F0  0E02               	movlw	2
  1038  0004F2  6EDE               	movwf	postinc2,c
  1039  0004F4  0E00               	movlw	0
  1040  0004F6  6EDD               	movwf	postdec2,c
  1041  0004F8                     
  1042                           ; BSR set to: 0
  1043                           ;tasks.c: 67:          clothes.state = 0;
  1044                           ;stkvar	_clothes @ sp[(-12)+0]
  1045  0004F8  0EF8               	movlw	248
  1046  0004FA  24E1               	addwf	fsr1l,w,c
  1047  0004FC  6ED9               	movwf	fsr2l,c
  1048  0004FE  0EFF               	movlw	255
  1049  000500  20E2               	addwfc	fsr1h,w,c
  1050  000502  6EDA               	movwf	fsr2h,c
  1051  000504  0E00               	movlw	0
  1052  000506  6EDE               	movwf	postinc2,c
  1053  000508  0E00               	movlw	0
  1054  00050A  6EDD               	movwf	postdec2,c
  1055  00050C                     
  1056                           ; BSR set to: 0
  1057                           ;tasks.c: 69:          f_clothes.clothes_waiting[f_clothes.fila_size] = clothes;
  1058                           ;stkvar	_clothes @ sp[(-12)+0]
  1059  00050C  0EF4               	movlw	244
  1060  00050E  24E1               	addwf	fsr1l,w,c
  1061  000510  6ED9               	movwf	fsr2l,c
  1062  000512  0EFF               	movlw	255
  1063  000514  20E2               	addwfc	fsr1h,w,c
  1064  000516  6EDA               	movwf	fsr2h,c
  1065  000518  EE00  F0B0         	lfsr	0,_f_clothes+48
  1066  00051C  CFEE F00B          	movff	postinc0,btemp+10
  1067  000520  CFED F00C          	movff	postdec0,btemp+11
  1068  000524  0E06               	movlw	6
  1069  000526  020B               	mulwf	(btemp+10)^0,c
  1070  000528  CFF3 F009          	movff	prodl,btemp+8
  1071  00052C  CFF4 F00A          	movff	prodh,btemp+9
  1072  000530  020C               	mulwf	(btemp+11)^0,c
  1073  000532  50F3               	movf	prodl,w,c
  1074  000534  260A               	addwf	(btemp+9)^0,f,c
  1075  000536  0E80               	movlw	low _f_clothes
  1076  000538  2409               	addwf	(btemp+8)^0,w,c
  1077  00053A  6EE9               	movwf	fsr0l,c
  1078  00053C  0E00               	movlw	high _f_clothes
  1079  00053E  200A               	addwfc	(btemp+9)^0,w,c
  1080  000540  6EEA               	movwf	fsr0h,c
  1081  000542  0E05               	movlw	5
  1082  000544                     u27_21:
  1083  000544  CFDB FFEB          	movff	plusw2,plusw0
  1084  000548  06E8               	decf	wreg,f,c
  1085  00054A  E2FC               	bc	u27_21
  1086  00054C  EF44  F002         	goto	l1206
  1087                           
  1088                           ; _task_read_buttons: autosize = 12, savesize = 0, parsavesize = 0, tempsize = 0 parsize
      +                           = 0, argsize = 0, vargsize = 0
  1089  000550  0EF4               	movlw	244
  1090  000552  26E1               	addwf	fsr1l,f,c
  1091  000554  0EFF               	movlw	255
  1092  000556  22E2               	addwfc	fsr1h,f,c
  1093  000558  0012               	return		;funcret
  1094  00055A                     __end_of_task_read_buttons:
  1095                           	callstack 0
  1096                           
  1097 ;; *************** function _check_wash *****************
  1098 ;; Defined at:
  1099 ;;		line 76 in file "tasks.c"
  1100 ;; Parameters:    Size  Location     Type
  1101 ;;		None
  1102 ;; Auto vars:     Size  Location     Type
  1103 ;;  i               2  [STACK] int 
  1104 ;;  next_clothes    6  [STACK] struct clothes_control
  1105 ;; Return value:  Size  Location     Type
  1106 ;;                  1  [STACK] void 
  1107 ;; Registers used:
  1108 ;;		wreg, fsr0l, fsr0h, fsr1l, fsr1h, fsr2l, fsr2h, status,2, status,0, btemp, btemp+8, btemp+9, btemp+10, btemp+11, pro
      +dl, prodh
  1109 ;; Tracked objects:
  1110 ;;		On entry : 0/0
  1111 ;;		On exit  : 0/0
  1112 ;;		Unchanged: 0/0
  1113 ;; Data sizes:     COMRAM   BANK0   BANK1   BANK2   BANK3   BANK4   BANK5
  1114 ;;      Params:         0       0       0       0       0       0       0
  1115 ;;      Locals:         0       0       0       0       0       0       0
  1116 ;;      Temps:          0       0       0       0       0       0       0
  1117 ;;      Totals:         0       0       0       0       0       0       0
  1118 ;;Total ram usage:        0 bytes
  1119 ;; Hardware stack levels used:    1
  1120 ;; Hardware stack levels required when called:    5
  1121 ;; This function calls:
  1122 ;;		_run_wash
  1123 ;; This function is called by:
  1124 ;;		_main
  1125 ;; This function uses a reentrant model
  1126 ;;
  1127                           
  1128                           	psect	text8
  1129  00055A                     __ptext8:
  1130                           	callstack 0
  1131  00055A                     _check_wash:
  1132                           	callstack 0
  1133                           
  1134                           ; BSR set to: 0
  1135                           ; autosize = 8, savesize = 0, parsavesize = 0, tempsize = 0 parsize = 0, argsize = 0 var
      +                          gsize = 0, retsize = 0 argfudge = 0
  1136  00055A  0E08               	movlw	8
  1137  00055C  26E1               	addwf	fsr1l,f,c
  1138  00055E  0E00               	movlw	0
  1139  000560  22E2               	addwfc	fsr1h,f,c
  1140  000562                     l149:
  1141  000562                     
  1142                           ;tasks.c: 79:    {;tasks.c: 81:       if (w_machine.flag == 0 && f_clothes.fila_size > 0
      +                          )
  1143  000562  5035               	movf	(_w_machine+2)^0,w,c
  1144  000564  1036               	iorwf	(_w_machine+3)^0,w,c
  1145  000566  A4D8               	btfss	status,2,c
  1146  000568  EFB8  F002         	goto	u28_21
  1147  00056C  EFBA  F002         	goto	u28_20
  1148  000570                     u28_21:
  1149  000570  EF55  F003         	goto	l1256
  1150  000574                     u28_20:
  1151  000574  0100               	movlb	0	; () banked
  1152  000576  51B0               	movf	(_f_clothes+48)& (0+255),w,b
  1153  000578  11B1               	iorwf	(_f_clothes+49)& (0+255),w,b
  1154  00057A  B4D8               	btfsc	status,2,c
  1155  00057C  EFC2  F002         	goto	u29_21
  1156  000580  EFC4  F002         	goto	u29_20
  1157  000584                     u29_21:
  1158  000584  EF55  F003         	goto	l1256
  1159  000588                     u29_20:
  1160  000588                     
  1161                           ; BSR set to: 0
  1162                           ;tasks.c: 82:       {;tasks.c: 84:          clothes_control_t next_clothes = f_clothes.c
      +                          lothes_waiting[0];
  1163  000588  EE20  F080         	lfsr	2,_f_clothes
  1164                           
  1165                           ;stkvar	_next_clothes @ sp[(-8)+2]
  1166  00058C  0E06               	movlw	6
  1167  00058E  6E01               	movwf	btemp^0,c
  1168  000590  0EFA               	movlw	-6
  1169  000592                     us30_2999:
  1170  000592  CFDE FFE3          	movff	postinc2,plusw1
  1171  000596  28E8               	incf	wreg,w,c
  1172  000598  2E01               	decfsz	btemp^0,f,c
  1173  00059A  D7FB               	bra	us30_2999
  1174  00059C                     
  1175                           ; BSR set to: 0
  1176                           ;tasks.c: 86:          for (int i = 0; i < 8 - 1; i++)
  1177                           ;stkvar	_i @ sp[(-8)+0]
  1178  00059C  0EF8               	movlw	-8
  1179  00059E  6AE3               	clrf	plusw1,c
  1180  0005A0  0EF9               	movlw	-7
  1181  0005A2  6AE3               	clrf	plusw1,c
  1182  0005A4                     l1238:
  1183                           
  1184                           ;tasks.c: 87:          {;tasks.c: 88:             f_clothes.clothes_waiting[i] = f_cloth
      +                          es.clothes_waiting[i + 1];
  1185                           ;stkvar	_i @ sp[(-8)+0]
  1186  0005A4  0EF8               	movlw	-8
  1187  0005A6  CFE3 F00B          	movff	plusw1,btemp+10
  1188  0005AA  0EF9               	movlw	-7
  1189  0005AC  CFE3 F00C          	movff	plusw1,btemp+11
  1190  0005B0  0E06               	movlw	6
  1191  0005B2  020B               	mulwf	(btemp+10)^0,c
  1192  0005B4  CFF3 F009          	movff	prodl,btemp+8
  1193  0005B8  CFF4 F00A          	movff	prodh,btemp+9
  1194  0005BC  020C               	mulwf	(btemp+11)^0,c
  1195  0005BE  50F3               	movf	prodl,w,c
  1196  0005C0  260A               	addwf	(btemp+9)^0,f,c
  1197  0005C2  0E86               	movlw	low (_f_clothes+6)
  1198  0005C4  2409               	addwf	(btemp+8)^0,w,c
  1199  0005C6  6ED9               	movwf	fsr2l,c
  1200  0005C8  0E00               	movlw	high (_f_clothes+6)
  1201  0005CA  200A               	addwfc	(btemp+9)^0,w,c
  1202  0005CC  6EDA               	movwf	fsr2h,c
  1203                           
  1204                           ;stkvar	_i @ sp[(-8)+0]
  1205  0005CE  0EF8               	movlw	-8
  1206  0005D0  CFE3 F00B          	movff	plusw1,btemp+10
  1207  0005D4  0EF9               	movlw	-7
  1208  0005D6  CFE3 F00C          	movff	plusw1,btemp+11
  1209  0005DA  0E06               	movlw	6
  1210  0005DC  020B               	mulwf	(btemp+10)^0,c
  1211  0005DE  CFF3 F009          	movff	prodl,btemp+8
  1212  0005E2  CFF4 F00A          	movff	prodh,btemp+9
  1213  0005E6  020C               	mulwf	(btemp+11)^0,c
  1214  0005E8  50F3               	movf	prodl,w,c
  1215  0005EA  260A               	addwf	(btemp+9)^0,f,c
  1216  0005EC  0E80               	movlw	low _f_clothes
  1217  0005EE  2409               	addwf	(btemp+8)^0,w,c
  1218  0005F0  6EE9               	movwf	fsr0l,c
  1219  0005F2  0E00               	movlw	high _f_clothes
  1220  0005F4  200A               	addwfc	(btemp+9)^0,w,c
  1221  0005F6  6EEA               	movwf	fsr0h,c
  1222  0005F8  0E05               	movlw	5
  1223  0005FA                     u31_21:
  1224  0005FA  CFDB FFEB          	movff	plusw2,plusw0
  1225  0005FE  06E8               	decf	wreg,f,c
  1226  000600  E2FC               	bc	u31_21
  1227  000602                     
  1228                           ;tasks.c: 89:          }
  1229                           ;stkvar	_i @ sp[(-8)+0]
  1230  000602  0EF8               	movlw	-8
  1231  000604  50E3               	movf	plusw1,w,c
  1232  000606  0F01               	addlw	1
  1233  000608  6E01               	movwf	btemp^0,c
  1234  00060A  0EF8               	movlw	-8
  1235  00060C  C001  FFE3         	movff	btemp,plusw1
  1236  000610  6A01               	clrf	btemp^0,c
  1237  000612  0EF9               	movlw	-7
  1238  000614  50E3               	movf	plusw1,w,c
  1239  000616  2001               	addwfc	btemp^0,w,c
  1240  000618  6E01               	movwf	btemp^0,c
  1241  00061A  0EF9               	movlw	-7
  1242  00061C  C001  FFE3         	movff	btemp,plusw1
  1243  000620                     
  1244                           ;stkvar	_i @ sp[(-8)+0]
  1245  000620  0EF9               	movlw	-7
  1246  000622  BEE3               	btfsc	plusw1,7,c
  1247  000624  EF21  F003         	goto	u32_21
  1248  000628  0EF9               	movlw	-7
  1249  00062A  50E3               	movf	plusw1,w,c
  1250  00062C  E10C               	bnz	u32_20
  1251  00062E  0EF8               	movlw	-8
  1252  000630  CFE3 F001          	movff	plusw1,btemp
  1253  000634  0E07               	movlw	7
  1254  000636  5E01               	subwf	btemp^0,f,c
  1255  000638  A0D8               	btfss	status,0,c
  1256  00063A  EF21  F003         	goto	u32_21
  1257  00063E  EF23  F003         	goto	u32_20
  1258  000642                     u32_21:
  1259  000642  EFD2  F002         	goto	l1238
  1260  000646                     u32_20:
  1261  000646                     
  1262                           ;tasks.c: 91:          f_clothes.fila_size--;
  1263  000646  0100               	movlb	0	; () banked
  1264  000648  07B0               	decf	(_f_clothes+48)& (0+255),f,b
  1265  00064A  A0D8               	btfss	status,0,c
  1266  00064C  07B1               	decf	(_f_clothes+49)& (0+255),f,b
  1267  00064E                     
  1268                           ; BSR set to: 0
  1269                           ;tasks.c: 92:          f_clothes.clothes_washing = next_clothes;
  1270                           ;stkvar	_next_clothes @ sp[(-8)+2]
  1271  00064E  0EFA               	movlw	250
  1272  000650  24E1               	addwf	fsr1l,w,c
  1273  000652  6ED9               	movwf	fsr2l,c
  1274  000654  0EFF               	movlw	255
  1275  000656  20E2               	addwfc	fsr1h,w,c
  1276  000658  6EDA               	movwf	fsr2h,c
  1277  00065A  EE00  F0B2         	lfsr	0,_f_clothes+50
  1278  00065E  0E05               	movlw	5
  1279  000660                     u33_21:
  1280  000660  CFDB FFEB          	movff	plusw2,plusw0
  1281  000664  06E8               	decf	wreg,f,c
  1282  000666  E2FC               	bc	u33_21
  1283  000668                     
  1284                           ; BSR set to: 0
  1285                           ;tasks.c: 93:          w_machine.flag = 1;
  1286  000668  0E00               	movlw	0
  1287  00066A  6E36               	movwf	(_w_machine+3)^0,c
  1288  00066C  0E01               	movlw	1
  1289  00066E  6E35               	movwf	(_w_machine+2)^0,c
  1290  000670                     
  1291                           ; BSR set to: 0
  1292                           ;tasks.c: 94:          PORTDbits.RD4 = ~PORTDbits.RD4;
  1293  000670  B883               	btfsc	131,4,c	;volatile
  1294  000672  EF3D  F003         	goto	u34_21
  1295  000676  EF40  F003         	goto	u34_20
  1296  00067A                     u34_21:
  1297  00067A  0E01               	movlw	1
  1298  00067C  EF41  F003         	goto	u34_26
  1299  000680                     u34_20:
  1300  000680  0E00               	movlw	0
  1301  000682                     u34_26:
  1302  000682  0AFF               	xorlw	255
  1303  000684  6E0C               	movwf	(btemp+11)^0,c
  1304  000686  3A0C               	swapf	(btemp+11)^0,f,c
  1305  000688  5083               	movf	131,w,c	;volatile
  1306  00068A  180C               	xorwf	(btemp+11)^0,w,c
  1307  00068C  0BEF               	andlw	-17
  1308  00068E  180C               	xorwf	(btemp+11)^0,w,c
  1309  000690  6E83               	movwf	131,c	;volatile
  1310  000692                     
  1311                           ; BSR set to: 0
  1312                           ;tasks.c: 97:          next_clothes.state = 0;
  1313                           ;stkvar	_next_clothes @ sp[(-8)+2]
  1314  000692  0EFE               	movlw	254
  1315  000694  24E1               	addwf	fsr1l,w,c
  1316  000696  6ED9               	movwf	fsr2l,c
  1317  000698  0EFF               	movlw	255
  1318  00069A  20E2               	addwfc	fsr1h,w,c
  1319  00069C  6EDA               	movwf	fsr2h,c
  1320  00069E  0E00               	movlw	0
  1321  0006A0  6EDE               	movwf	postinc2,c
  1322  0006A2  0E00               	movlw	0
  1323  0006A4  6EDD               	movwf	postdec2,c
  1324  0006A6                     
  1325                           ; BSR set to: 0
  1326                           ;tasks.c: 98:          run_wash();
  1327  0006A6  EC55  F005         	call	_run_wash	;wreg free
  1328  0006AA                     l1256:
  1329                           
  1330                           ;tasks.c: 101:       if (w_machine.flag == 1 && f_clothes.clothes_washing.state == 0)
  1331  0006AA  0435               	decf	(_w_machine+2)^0,w,c
  1332  0006AC  1036               	iorwf	(_w_machine+3)^0,w,c
  1333  0006AE  A4D8               	btfss	status,2,c
  1334  0006B0  EF5C  F003         	goto	u35_21
  1335  0006B4  EF5E  F003         	goto	u35_20
  1336  0006B8                     u35_21:
  1337  0006B8  EFB1  F002         	goto	l149
  1338  0006BC                     u35_20:
  1339  0006BC  0100               	movlb	0	; () banked
  1340  0006BE  51B6               	movf	(_f_clothes+54)& (0+255),w,b
  1341  0006C0  11B7               	iorwf	(_f_clothes+55)& (0+255),w,b
  1342  0006C2  A4D8               	btfss	status,2,c
  1343  0006C4  EF66  F003         	goto	u36_21
  1344  0006C8  EF68  F003         	goto	u36_20
  1345  0006CC                     u36_21:
  1346  0006CC  EFB1  F002         	goto	l149
  1347  0006D0                     u36_20:
  1348  0006D0                     
  1349                           ; BSR set to: 0
  1350                           ;tasks.c: 102:       {;tasks.c: 103:          run_wash();
  1351  0006D0  EC55  F005         	call	_run_wash	;wreg free
  1352  0006D4  EFB1  F002         	goto	l149
  1353                           
  1354                           ; _check_wash: autosize = 8, savesize = 0, parsavesize = 0, tempsize = 0 parsize = 0, ar
      +                          gsize = 0, vargsize = 0
  1355  0006D8  0EF8               	movlw	248
  1356  0006DA  26E1               	addwf	fsr1l,f,c
  1357  0006DC  0EFF               	movlw	255
  1358  0006DE  22E2               	addwfc	fsr1h,f,c
  1359  0006E0  0012               	return		;funcret
  1360  0006E2                     __end_of_check_wash:
  1361                           	callstack 0
  1362                           
  1363 ;; *************** function _run_wash *****************
  1364 ;; Defined at:
  1365 ;;		line 108 in file "tasks.c"
  1366 ;; Parameters:    Size  Location     Type
  1367 ;;		None
  1368 ;; Auto vars:     Size  Location     Type
  1369 ;;		None
  1370 ;; Return value:  Size  Location     Type
  1371 ;;                  1  [STACK] void 
  1372 ;; Registers used:
  1373 ;;		wreg, status,2, status,0
  1374 ;; Tracked objects:
  1375 ;;		On entry : 3F/0
  1376 ;;		On exit  : 0/0
  1377 ;;		Unchanged: 0/0
  1378 ;; Data sizes:     COMRAM   BANK0   BANK1   BANK2   BANK3   BANK4   BANK5
  1379 ;;      Params:         0       0       0       0       0       0       0
  1380 ;;      Locals:         0       0       0       0       0       0       0
  1381 ;;      Temps:          0       0       0       0       0       0       0
  1382 ;;      Totals:         0       0       0       0       0       0       0
  1383 ;;Total ram usage:        0 bytes
  1384 ;; Hardware stack levels used:    1
  1385 ;; Hardware stack levels required when called:    4
  1386 ;; This function calls:
  1387 ;;		Nothing
  1388 ;; This function is called by:
  1389 ;;		_check_wash
  1390 ;; This function uses a reentrant model
  1391 ;;
  1392                           
  1393                           	psect	text9
  1394  000AAA                     __ptext9:
  1395                           	callstack 0
  1396  000AAA                     _run_wash:
  1397                           	callstack 23
  1398  000AAA                     
  1399                           ;tasks.c: 110:    if (w_machine.counter < 10000)
  1400  000AAA  0E10               	movlw	16
  1401  000AAC  5C33               	subwf	_w_machine^0,w,c
  1402  000AAE  0E27               	movlw	39
  1403  000AB0  5834               	subwfb	(_w_machine+1)^0,w,c
  1404  000AB2  B0D8               	btfsc	status,0,c
  1405  000AB4  EF5E  F005         	goto	u7_21
  1406  000AB8  EF60  F005         	goto	u7_20
  1407  000ABC                     u7_21:
  1408  000ABC  EF65  F005         	goto	l1118
  1409  000AC0                     u7_20:
  1410  000AC0                     
  1411                           ;tasks.c: 111:    {;tasks.c: 112:       PORTCbits.RC4 = 1;
  1412  000AC0  8882               	bsf	130,4,c	;volatile
  1413                           
  1414                           ;tasks.c: 113:       PORTCbits.RC5 = 1;
  1415  000AC2  8A82               	bsf	130,5,c	;volatile
  1416                           
  1417                           ;tasks.c: 114:       PORTDbits.RD2 = 1;
  1418  000AC4  8483               	bsf	131,2,c	;volatile
  1419  000AC6                     
  1420                           ;tasks.c: 115:       w_machine.counter++;
  1421  000AC6  4A33               	infsnz	_w_machine^0,f,c
  1422  000AC8  2A34               	incf	(_w_machine+1)^0,f,c
  1423  000ACA                     l1118:
  1424                           
  1425                           ;tasks.c: 117:    if (w_machine.counter >= 10000 && f_clothes.clothes_washing.washing_cy
      +                          cles == 1)
  1426  000ACA  0E10               	movlw	16
  1427  000ACC  5C33               	subwf	_w_machine^0,w,c
  1428  000ACE  0E27               	movlw	39
  1429  000AD0  5834               	subwfb	(_w_machine+1)^0,w,c
  1430  000AD2  A0D8               	btfss	status,0,c
  1431  000AD4  EF6E  F005         	goto	u8_21
  1432  000AD8  EF70  F005         	goto	u8_20
  1433  000ADC                     u8_21:
  1434  000ADC  EF89  F005         	goto	l1130
  1435  000AE0                     u8_20:
  1436  000AE0  0100               	movlb	0	; () banked
  1437  000AE2  05B4               	decf	(_f_clothes+52)& (0+255),w,b
  1438  000AE4  11B5               	iorwf	(_f_clothes+53)& (0+255),w,b
  1439  000AE6  A4D8               	btfss	status,2,c
  1440  000AE8  EF78  F005         	goto	u9_21
  1441  000AEC  EF7A  F005         	goto	u9_20
  1442  000AF0                     u9_21:
  1443  000AF0  EF89  F005         	goto	l1130
  1444  000AF4                     u9_20:
  1445  000AF4                     
  1446                           ; BSR set to: 0
  1447                           ;tasks.c: 119:    {;tasks.c: 120:       PORTCbits.RC4 = 0;
  1448  000AF4  9882               	bcf	130,4,c	;volatile
  1449                           
  1450                           ;tasks.c: 121:       PORTCbits.RC5 = 0;
  1451  000AF6  9A82               	bcf	130,5,c	;volatile
  1452                           
  1453                           ;tasks.c: 123:       PORTDbits.RD2 = 0;
  1454  000AF8  9483               	bcf	131,2,c	;volatile
  1455  000AFA                     
  1456                           ; BSR set to: 0
  1457                           ;tasks.c: 124:       f_clothes.clothes_washing.state = 1;
  1458  000AFA  0E00               	movlw	0
  1459  000AFC  6FB7               	movwf	(_f_clothes+55)& (0+255),b
  1460  000AFE  0E01               	movlw	1
  1461  000B00  6FB6               	movwf	(_f_clothes+54)& (0+255),b
  1462  000B02                     
  1463                           ; BSR set to: 0
  1464                           ;tasks.c: 125:       w_machine.counter = 0;
  1465  000B02  6A33               	clrf	_w_machine^0,c
  1466  000B04  6A34               	clrf	(_w_machine+1)^0,c
  1467                           
  1468                           ;tasks.c: 126:       w_machine.flag = 1;
  1469  000B06  0E00               	movlw	0
  1470  000B08  6E36               	movwf	(_w_machine+3)^0,c
  1471  000B0A  0E01               	movlw	1
  1472  000B0C  6E35               	movwf	(_w_machine+2)^0,c
  1473  000B0E                     
  1474                           ; BSR set to: 0
  1475                           ;tasks.c: 127:       i_machine.flag = 0;
  1476  000B0E  6A31               	clrf	(_i_machine+2)^0,c
  1477  000B10  6A32               	clrf	(_i_machine+3)^0,c
  1478  000B12                     l1130:
  1479                           
  1480                           ;tasks.c: 129:    if (w_machine.counter >= 10000 && f_clothes.clothes_washing.washing_cy
      +                          cles > 1)
  1481  000B12  0E10               	movlw	16
  1482  000B14  5C33               	subwf	_w_machine^0,w,c
  1483  000B16  0E27               	movlw	39
  1484  000B18  5834               	subwfb	(_w_machine+1)^0,w,c
  1485  000B1A  A0D8               	btfss	status,0,c
  1486  000B1C  EF92  F005         	goto	u10_21
  1487  000B20  EF94  F005         	goto	u10_20
  1488  000B24                     u10_21:
  1489  000B24  EFA6  F005         	goto	l162
  1490  000B28                     u10_20:
  1491  000B28  0100               	movlb	0	; () banked
  1492  000B2A  51B5               	movf	(_f_clothes+53)& (0+255),w,b
  1493  000B2C  E109               	bnz	u11_20
  1494  000B2E  0E02               	movlw	2
  1495  000B30  5DB4               	subwf	(_f_clothes+52)& (0+255),w,b
  1496  000B32  A0D8               	btfss	status,0,c
  1497  000B34  EF9E  F005         	goto	u11_21
  1498  000B38  EFA0  F005         	goto	u11_20
  1499  000B3C                     u11_21:
  1500  000B3C  EFA6  F005         	goto	l162
  1501  000B40                     u11_20:
  1502  000B40                     
  1503                           ; BSR set to: 0
  1504                           ;tasks.c: 130:    {;tasks.c: 131:       PORTDbits.RD2 = 0;
  1505  000B40  9483               	bcf	131,2,c	;volatile
  1506  000B42                     
  1507                           ; BSR set to: 0
  1508                           ;tasks.c: 132:       f_clothes.clothes_washing.washing_cycles--;
  1509  000B42  07B4               	decf	(_f_clothes+52)& (0+255),f,b
  1510  000B44  A0D8               	btfss	status,0,c
  1511  000B46  07B5               	decf	(_f_clothes+53)& (0+255),f,b
  1512  000B48                     
  1513                           ; BSR set to: 0
  1514                           ;tasks.c: 133:       w_machine.counter = 0;
  1515  000B48  6A33               	clrf	_w_machine^0,c
  1516  000B4A  6A34               	clrf	(_w_machine+1)^0,c
  1517  000B4C                     l162:
  1518                           
  1519                           ; _run_wash: autosize = 0, savesize = 0, parsavesize = 0, tempsize = 0 parsize = 0, args
      +                          ize = 0, vargsize = 0
  1520  000B4C  0012               	return		;funcret
  1521  000B4E                     __end_of_run_wash:
  1522                           	callstack 0
  1523                           
  1524 ;; *************** function _check_ironing *****************
  1525 ;; Defined at:
  1526 ;;		line 137 in file "tasks.c"
  1527 ;; Parameters:    Size  Location     Type
  1528 ;;		None
  1529 ;; Auto vars:     Size  Location     Type
  1530 ;;		None
  1531 ;; Return value:  Size  Location     Type
  1532 ;;                  1  [STACK] void 
  1533 ;; Registers used:
  1534 ;;		wreg, fsr0l, fsr0h, fsr1l, fsr1h, fsr2l, fsr2h, status,2, status,0, btemp+8, btemp+9, btemp+10, btemp+11, prodl, pro
      +dh
  1535 ;; Tracked objects:
  1536 ;;		On entry : 0/0
  1537 ;;		On exit  : 0/0
  1538 ;;		Unchanged: 0/0
  1539 ;; Data sizes:     COMRAM   BANK0   BANK1   BANK2   BANK3   BANK4   BANK5
  1540 ;;      Params:         0       0       0       0       0       0       0
  1541 ;;      Locals:         0       0       0       0       0       0       0
  1542 ;;      Temps:          0       0       0       0       0       0       0
  1543 ;;      Totals:         0       0       0       0       0       0       0
  1544 ;;Total ram usage:        0 bytes
  1545 ;; Hardware stack levels used:    1
  1546 ;; Hardware stack levels required when called:    5
  1547 ;; This function calls:
  1548 ;;		_run_ironing
  1549 ;; This function is called by:
  1550 ;;		_main
  1551 ;; This function uses a reentrant model
  1552 ;;
  1553                           
  1554                           	psect	text10
  1555  000A00                     __ptext10:
  1556                           	callstack 0
  1557  000A00                     _check_ironing:
  1558                           	callstack 23
  1559  000A00                     l165:
  1560  000A00                     
  1561                           ;tasks.c: 140:    {;tasks.c: 141:       if (w_machine.flag == 1 && f_clothes.clothes_was
      +                          hing.state == 1 && i_machine.flag == 0)
  1562  000A00  0435               	decf	(_w_machine+2)^0,w,c
  1563  000A02  1036               	iorwf	(_w_machine+3)^0,w,c
  1564  000A04  A4D8               	btfss	status,2,c
  1565  000A06  EF07  F005         	goto	u37_21
  1566  000A0A  EF09  F005         	goto	u37_20
  1567  000A0E                     u37_21:
  1568  000A0E  EF35  F005         	goto	l1276
  1569  000A12                     u37_20:
  1570  000A12  0100               	movlb	0	; () banked
  1571  000A14  05B6               	decf	(_f_clothes+54)& (0+255),w,b
  1572  000A16  11B7               	iorwf	(_f_clothes+55)& (0+255),w,b
  1573  000A18  A4D8               	btfss	status,2,c
  1574  000A1A  EF11  F005         	goto	u38_21
  1575  000A1E  EF13  F005         	goto	u38_20
  1576  000A22                     u38_21:
  1577  000A22  EF35  F005         	goto	l1276
  1578  000A26                     u38_20:
  1579  000A26                     
  1580                           ; BSR set to: 0
  1581  000A26  5031               	movf	(_i_machine+2)^0,w,c
  1582  000A28  1032               	iorwf	(_i_machine+3)^0,w,c
  1583  000A2A  A4D8               	btfss	status,2,c
  1584  000A2C  EF1A  F005         	goto	u39_21
  1585  000A30  EF1C  F005         	goto	u39_20
  1586  000A34                     u39_21:
  1587  000A34  EF35  F005         	goto	l1276
  1588  000A38                     u39_20:
  1589  000A38                     
  1590                           ; BSR set to: 0
  1591                           ;tasks.c: 142:       {;tasks.c: 145:          f_clothes.clothes_ironing = f_clothes.clot
      +                          hes_washing;
  1592  000A38  EE20  F0B2         	lfsr	2,_f_clothes+50
  1593  000A3C  EE00  F0B8         	lfsr	0,_f_clothes+56
  1594  000A40  0E05               	movlw	5
  1595  000A42                     u40_21:
  1596  000A42  CFDB FFEB          	movff	plusw2,plusw0
  1597  000A46  06E8               	decf	wreg,f,c
  1598  000A48  E2FC               	bc	u40_21
  1599  000A4A                     
  1600                           ; BSR set to: 0
  1601                           ;tasks.c: 146:          w_machine.flag = 0;
  1602  000A4A  6A35               	clrf	(_w_machine+2)^0,c
  1603  000A4C  6A36               	clrf	(_w_machine+3)^0,c
  1604  000A4E                     
  1605                           ; BSR set to: 0
  1606                           ;tasks.c: 147:          i_machine.flag = 1;
  1607  000A4E  0E00               	movlw	0
  1608  000A50  6E32               	movwf	(_i_machine+3)^0,c
  1609  000A52  0E01               	movlw	1
  1610  000A54  6E31               	movwf	(_i_machine+2)^0,c
  1611  000A56                     
  1612                           ; BSR set to: 0
  1613                           ;tasks.c: 148:          run_ironing(f_clothes.clothes_ironing);
  1614  000A56  EE20  F0B8         	lfsr	2,_f_clothes+56
  1615  000A5A  0E06               	movlw	6
  1616  000A5C                     u41_21:
  1617  000A5C  CFDE FFE6          	movff	postinc2,postinc1
  1618  000A60  2CE8               	decfsz	wreg,w,c
  1619  000A62  EF2E  F005         	goto	u41_21
  1620  000A66  ECF2  F005         	call	_run_ironing	;wreg free
  1621  000A6A                     l1276:
  1622                           
  1623                           ;tasks.c: 151:       if (f_clothes.clothes_washing.state == 1 && i_machine.flag == 1)
  1624  000A6A  0100               	movlb	0	; () banked
  1625  000A6C  05B6               	decf	(_f_clothes+54)& (0+255),w,b
  1626  000A6E  11B7               	iorwf	(_f_clothes+55)& (0+255),w,b
  1627  000A70  A4D8               	btfss	status,2,c
  1628  000A72  EF3D  F005         	goto	u42_21
  1629  000A76  EF3F  F005         	goto	u42_20
  1630  000A7A                     u42_21:
  1631  000A7A  EF00  F005         	goto	l165
  1632  000A7E                     u42_20:
  1633  000A7E                     
  1634                           ; BSR set to: 0
  1635  000A7E  0431               	decf	(_i_machine+2)^0,w,c
  1636  000A80  1032               	iorwf	(_i_machine+3)^0,w,c
  1637  000A82  A4D8               	btfss	status,2,c
  1638  000A84  EF46  F005         	goto	u43_21
  1639  000A88  EF48  F005         	goto	u43_20
  1640  000A8C                     u43_21:
  1641  000A8C  EF00  F005         	goto	l165
  1642  000A90                     u43_20:
  1643  000A90                     
  1644                           ; BSR set to: 0
  1645                           ;tasks.c: 152:       {;tasks.c: 155:          run_ironing(f_clothes.clothes_ironing);
  1646  000A90  EE20  F0B8         	lfsr	2,_f_clothes+56
  1647  000A94  0E06               	movlw	6
  1648  000A96                     u44_21:
  1649  000A96  CFDE FFE6          	movff	postinc2,postinc1
  1650  000A9A  2CE8               	decfsz	wreg,w,c
  1651  000A9C  EF4B  F005         	goto	u44_21
  1652  000AA0  ECF2  F005         	call	_run_ironing	;wreg free
  1653  000AA4  EF00  F005         	goto	l165
  1654                           
  1655                           ; _check_ironing: autosize = 0, savesize = 0, parsavesize = 0, tempsize = 0 parsize = 0,
      +                           argsize = 0, vargsize = 0
  1656  000AA8  0012               	return		;funcret
  1657  000AAA                     __end_of_check_ironing:
  1658                           	callstack 0
  1659                           
  1660 ;; *************** function _run_ironing *****************
  1661 ;; Defined at:
  1662 ;;		line 160 in file "tasks.c"
  1663 ;; Parameters:    Size  Location     Type
  1664 ;;  clothes_iron    6  [STACK] struct clothes_control
  1665 ;; Auto vars:     Size  Location     Type
  1666 ;;		None
  1667 ;; Return value:  Size  Location     Type
  1668 ;;                  1  [STACK] void 
  1669 ;; Registers used:
  1670 ;;		wreg, fsr0l, fsr0h, fsr1l, fsr1h, fsr2l, fsr2h, status,2, status,0, btemp+8, btemp+9, btemp+10, btemp+11, prodl, pro
      +dh
  1671 ;; Tracked objects:
  1672 ;;		On entry : 3F/0
  1673 ;;		On exit  : 0/0
  1674 ;;		Unchanged: 0/0
  1675 ;; Data sizes:     COMRAM   BANK0   BANK1   BANK2   BANK3   BANK4   BANK5
  1676 ;;      Params:         0       0       0       0       0       0       0
  1677 ;;      Locals:         0       0       0       0       0       0       0
  1678 ;;      Temps:          0       0       0       0       0       0       0
  1679 ;;      Totals:         0       0       0       0       0       0       0
  1680 ;;Total ram usage:        0 bytes
  1681 ;; Hardware stack levels used:    1
  1682 ;; Hardware stack levels required when called:    4
  1683 ;; This function calls:
  1684 ;;		Nothing
  1685 ;; This function is called by:
  1686 ;;		_check_ironing
  1687 ;; This function uses a reentrant model
  1688 ;;
  1689                           
  1690                           	psect	text11
  1691  000BE4                     __ptext11:
  1692                           	callstack 0
  1693  000BE4                     _run_ironing:
  1694                           	callstack 23
  1695  000BE4                     
  1696                           ;tasks.c: 160: void run_ironing(clothes_control_t clothes_ironing);tasks.c: 161: {;tasks
      +                          .c: 162:    if (i_machine.counter < 10000)
  1697  000BE4  0E10               	movlw	16
  1698  000BE6  5C2F               	subwf	_i_machine^0,w,c
  1699  000BE8  0E27               	movlw	39
  1700  000BEA  5830               	subwfb	(_i_machine+1)^0,w,c
  1701  000BEC  B0D8               	btfsc	status,0,c
  1702  000BEE  EFFB  F005         	goto	u12_21
  1703  000BF2  EFFD  F005         	goto	u12_20
  1704  000BF6                     u12_21:
  1705  000BF6  EF00  F006         	goto	l1146
  1706  000BFA                     u12_20:
  1707  000BFA                     
  1708                           ;tasks.c: 163:    {;tasks.c: 164:       PORTDbits.RD3 = 1;
  1709  000BFA  8683               	bsf	131,3,c	;volatile
  1710  000BFC                     
  1711                           ;tasks.c: 165:       i_machine.counter++;
  1712  000BFC  4A2F               	infsnz	_i_machine^0,f,c
  1713  000BFE  2A30               	incf	(_i_machine+1)^0,f,c
  1714  000C00                     l1146:
  1715                           
  1716                           ;tasks.c: 168:    if (i_machine.counter >= 10000)
  1717  000C00  0E10               	movlw	16
  1718  000C02  5C2F               	subwf	_i_machine^0,w,c
  1719  000C04  0E27               	movlw	39
  1720  000C06  5830               	subwfb	(_i_machine+1)^0,w,c
  1721  000C08  A0D8               	btfss	status,0,c
  1722  000C0A  EF09  F006         	goto	u13_21
  1723  000C0E  EF0B  F006         	goto	u13_20
  1724  000C12                     u13_21:
  1725  000C12  EF37  F006         	goto	l175
  1726  000C16                     u13_20:
  1727  000C16                     
  1728                           ;tasks.c: 169:    {;tasks.c: 170:       PORTDbits.RD3 = 0;
  1729  000C16  9683               	bcf	131,3,c	;volatile
  1730                           
  1731                           ;tasks.c: 171:       i_machine.flag = 0;
  1732  000C18  6A31               	clrf	(_i_machine+2)^0,c
  1733  000C1A  6A32               	clrf	(_i_machine+3)^0,c
  1734                           
  1735                           ;tasks.c: 172:       i_machine.counter = 0;
  1736  000C1C  6A2F               	clrf	_i_machine^0,c
  1737  000C1E  6A30               	clrf	(_i_machine+1)^0,c
  1738  000C20                     
  1739                           ;tasks.c: 173:       f_clothes.clothes_washing.state = 2;
  1740  000C20  0E00               	movlw	0
  1741  000C22  0100               	movlb	0	; () banked
  1742  000C24  6FB7               	movwf	(_f_clothes+55)& (0+255),b
  1743  000C26  0E02               	movlw	2
  1744  000C28  6FB6               	movwf	(_f_clothes+54)& (0+255),b
  1745  000C2A                     
  1746                           ; BSR set to: 0
  1747                           ;tasks.c: 174:       f_clothes.clothes_finished[f_clothes.clothes_finished_size] = cloth
      +                          es_ironing;
  1748                           ;stkvar	_clothes_ironing @ sp[(0)+-6]
  1749  000C2A  0EFA               	movlw	250
  1750  000C2C  24E1               	addwf	fsr1l,w,c
  1751  000C2E  6ED9               	movwf	fsr2l,c
  1752  000C30  0EFF               	movlw	255
  1753  000C32  20E2               	addwfc	fsr1h,w,c
  1754  000C34  6EDA               	movwf	fsr2h,c
  1755  000C36  EE00  F0EE         	lfsr	0,_f_clothes+110
  1756  000C3A  CFEE F00B          	movff	postinc0,btemp+10
  1757  000C3E  CFED F00C          	movff	postdec0,btemp+11
  1758  000C42  0E06               	movlw	6
  1759  000C44  020B               	mulwf	(btemp+10)^0,c
  1760  000C46  CFF3 F009          	movff	prodl,btemp+8
  1761  000C4A  CFF4 F00A          	movff	prodh,btemp+9
  1762  000C4E  020C               	mulwf	(btemp+11)^0,c
  1763  000C50  50F3               	movf	prodl,w,c
  1764  000C52  260A               	addwf	(btemp+9)^0,f,c
  1765  000C54  0EBE               	movlw	low (_f_clothes+62)
  1766  000C56  2409               	addwf	(btemp+8)^0,w,c
  1767  000C58  6EE9               	movwf	fsr0l,c
  1768  000C5A  0E00               	movlw	high (_f_clothes+62)
  1769  000C5C  200A               	addwfc	(btemp+9)^0,w,c
  1770  000C5E  6EEA               	movwf	fsr0h,c
  1771  000C60  0E05               	movlw	5
  1772  000C62                     u14_21:
  1773  000C62  CFDB FFEB          	movff	plusw2,plusw0
  1774  000C66  06E8               	decf	wreg,f,c
  1775  000C68  E2FC               	bc	u14_21
  1776  000C6A                     
  1777                           ; BSR set to: 0
  1778                           ;tasks.c: 175:       f_clothes.clothes_finished_size++;
  1779  000C6A  4BEE               	infsnz	(_f_clothes+110)& (0+255),f,b
  1780  000C6C  2BEF               	incf	(_f_clothes+111)& (0+255),f,b
  1781  000C6E                     l175:
  1782                           
  1783                           ; _run_ironing: autosize = 0, savesize = 0, parsavesize = 0, tempsize = 0 parsize = 6, a
      +                          rgsize = 6, vargsize = 0
  1784  000C6E  0EFA               	movlw	250
  1785  000C70  26E1               	addwf	fsr1l,f,c
  1786  000C72  0EFF               	movlw	255
  1787  000C74  22E2               	addwfc	fsr1h,f,c
  1788  000C76  0012               	return		;funcret
  1789  000C78                     __end_of_run_ironing:
  1790                           	callstack 0
  1791                           
  1792 ;; *************** function _IRQ_Timer0 *****************
  1793 ;; Defined at:
  1794 ;;		line 46 in file "timer.c"
  1795 ;; Parameters:    Size  Location     Type
  1796 ;;		None
  1797 ;; Auto vars:     Size  Location     Type
  1798 ;;		None
  1799 ;; Return value:  Size  Location     Type
  1800 ;;                  1    wreg      void 
  1801 ;; Registers used:
  1802 ;;		wreg, fsr1l, fsr1h, fsr2l, fsr2h, status,2, status,0, btemp, btemp+1, btemp+8, btemp+9, btemp+10, btemp+11, prodl, p
      +rodh
  1803 ;; Tracked objects:
  1804 ;;		On entry : 0/0
  1805 ;;		On exit  : 0/0
  1806 ;;		Unchanged: 0/0
  1807 ;; Data sizes:     COMRAM   BANK0   BANK1   BANK2   BANK3   BANK4   BANK5
  1808 ;;      Params:         0       0       0       0       0       0       0
  1809 ;;      Locals:         0       0       0       0       0       0       0
  1810 ;;      Temps:         14       0       0       0       0       0       0
  1811 ;;      Totals:        14       0       0       0       0       0       0
  1812 ;;Total ram usage:       14 bytes
  1813 ;; Hardware stack levels used:    1
  1814 ;; Hardware stack levels required when called:    3
  1815 ;; This function calls:
  1816 ;;		___wmul
  1817 ;;		_controle_delay
  1818 ;;		_scheduler
  1819 ;; This function is called by:
  1820 ;;		Interrupt level 2
  1821 ;; This function uses a non-reentrant model
  1822 ;;
  1823                           
  1824                           	psect	intcode
  1825  000008                     __pintcode:
  1826                           	callstack 0
  1827  000008                     _IRQ_Timer0:
  1828                           	callstack 23
  1829                           
  1830                           ;incstack = 0
  1831  000008  ED0A  F000         	call	int_func,f	;refresh shadow registers
  1832                           
  1833                           	psect	intcode_body
  1834  000014                     __pintcode_body:
  1835                           	callstack 23
  1836  000014                     int_func:
  1837                           	callstack 23
  1838  000014  0006               	pop		; remove dummy address from shadow register refresh
  1839  000016  CFE1 F023          	movff	fsr1l,??_IRQ_Timer0+2
  1840  00001A  CFE2 F024          	movff	fsr1h,??_IRQ_Timer0+3
  1841  00001E  CFD9 F025          	movff	fsr2l,??_IRQ_Timer0+4
  1842  000022  CFDA F026          	movff	fsr2h,??_IRQ_Timer0+5
  1843  000026  CFF3 F027          	movff	prodl,??_IRQ_Timer0+6
  1844  00002A  CFF4 F028          	movff	prodh,??_IRQ_Timer0+7
  1845  00002E  C001  F029         	movff	btemp,??_IRQ_Timer0+8
  1846  000032  C002  F02A         	movff	btemp+1,??_IRQ_Timer0+9
  1847  000036  C009  F02B         	movff	btemp+8,??_IRQ_Timer0+10
  1848  00003A  C00A  F02C         	movff	btemp+9,??_IRQ_Timer0+11
  1849  00003E  C00B  F02D         	movff	btemp+10,??_IRQ_Timer0+12
  1850  000042  C00C  F02E         	movff	btemp+11,??_IRQ_Timer0+13
  1851  000046  EE14  F09C         	lfsr	1,___inthi_sp
  1852  00004A                     
  1853                           ;timer.c: 50:    INTCONbits.GIE = 0;
  1854  00004A  9EF2               	bcf	242,7,c	;volatile
  1855                           
  1856                           ;timer.c: 52:    if (INTCONbits.TMR0IF)
  1857  00004C  A4F2               	btfss	242,2,c	;volatile
  1858  00004E  EF2B  F000         	goto	i2u45_41
  1859  000052  EF2D  F000         	goto	i2u45_40
  1860  000056                     i2u45_41:
  1861  000056  EFC3  F001         	goto	i2l268
  1862  00005A                     i2u45_40:
  1863  00005A                     
  1864                           ;timer.c: 53:    {;timer.c: 54:       INTCONbits.TMR0IF = 0;
  1865  00005A  94F2               	bcf	242,2,c	;volatile
  1866                           
  1867                           ;timer.c: 55:       TMR0L = 0;
  1868  00005C  6AD6               	clrf	214,c	;volatile
  1869  00005E                     
  1870                           ;timer.c: 59:       quantum--;
  1871  00005E  063B               	decf	_quantum^0,f,c
  1872  000060  A0D8               	btfss	status,0,c
  1873  000062  063C               	decf	(_quantum+1)^0,f,c
  1874  000064                     
  1875                           ;timer.c: 60:       if (quantum == 0)
  1876  000064  503B               	movf	_quantum^0,w,c
  1877  000066  103C               	iorwf	(_quantum+1)^0,w,c
  1878  000068  A4D8               	btfss	status,2,c
  1879  00006A  EF39  F000         	goto	i2u46_41
  1880  00006E  EF3B  F000         	goto	i2u46_40
  1881  000072                     i2u46_41:
  1882  000072  EFC1  F001         	goto	i2l1320
  1883  000076                     i2u46_40:
  1884  000076  0E2E               	movlw	46
  1885  000078  6EE6               	movwf	postinc1,c
  1886  00007A  0E00               	movlw	0
  1887  00007C  6EE6               	movwf	postinc1,c
  1888  00007E  C1E8  FFE6         	movff	_f_aptos+232,postinc1
  1889  000082  C1E9  FFE6         	movff	_f_aptos+233,postinc1
  1890  000086  ECA7  F005         	call	___wmul	;wreg free
  1891  00008A  0E27               	movlw	low (_f_aptos+39)
  1892  00008C  2401               	addwf	btemp^0,w,c
  1893  00008E  6ED9               	movwf	fsr2l,c
  1894  000090  0E01               	movlw	high (_f_aptos+39)
  1895  000092  2002               	addwfc	(btemp+1)^0,w,c
  1896  000094  6EDA               	movwf	fsr2h,c
  1897  000096  50DE               	movf	postinc2,w,c
  1898  000098  10DE               	iorwf	postinc2,w,c
  1899  00009A  B4D8               	btfsc	status,2,c
  1900  00009C  EF52  F000         	goto	i2u47_41
  1901  0000A0  EF54  F000         	goto	i2u47_40
  1902  0000A4                     i2u47_41:
  1903  0000A4  EFDD  F000         	goto	i2l1300
  1904  0000A8                     i2u47_40:
  1905  0000A8  6A39               	clrf	_index^0,c
  1906  0000AA  6A3A               	clrf	(_index+1)^0,c
  1907  0000AC  0E2E               	movlw	46
  1908  0000AE  6EE6               	movwf	postinc1,c
  1909  0000B0  0E00               	movlw	0
  1910  0000B2  6EE6               	movwf	postinc1,c
  1911  0000B4  C1E8  FFE6         	movff	_f_aptos+232,postinc1
  1912  0000B8  C1E9  FFE6         	movff	_f_aptos+233,postinc1
  1913  0000BC  ECA7  F005         	call	___wmul	;wreg free
  1914  0000C0  0E02               	movlw	low (_f_aptos+2)
  1915  0000C2  2401               	addwf	btemp^0,w,c
  1916  0000C4  6ED9               	movwf	fsr2l,c
  1917  0000C6  0E01               	movlw	high (_f_aptos+2)
  1918  0000C8  2002               	addwfc	(btemp+1)^0,w,c
  1919  0000CA  6EDA               	movwf	fsr2h,c
  1920  0000CC  0E00               	movlw	0
  1921  0000CE  6EDF               	movwf	indf2,c
  1922  0000D0  0E2E               	movlw	46
  1923  0000D2  6EE6               	movwf	postinc1,c
  1924  0000D4  0E00               	movlw	0
  1925  0000D6  6EE6               	movwf	postinc1,c
  1926  0000D8  C1E8  FFE6         	movff	_f_aptos+232,postinc1
  1927  0000DC  C1E9  FFE6         	movff	_f_aptos+233,postinc1
  1928  0000E0  ECA7  F005         	call	___wmul	;wreg free
  1929  0000E4  0E2A               	movlw	low (_f_aptos+42)
  1930  0000E6  2401               	addwf	btemp^0,w,c
  1931  0000E8  6ED9               	movwf	fsr2l,c
  1932  0000EA  0E01               	movlw	high (_f_aptos+42)
  1933  0000EC  2002               	addwfc	(btemp+1)^0,w,c
  1934  0000EE  6EDA               	movwf	fsr2h,c
  1935  0000F0  CFE8 FFDF          	movff	wreg,indf2	;volatile
  1936  0000F4  0E2E               	movlw	46
  1937  0000F6  6EE6               	movwf	postinc1,c
  1938  0000F8  0E00               	movlw	0
  1939  0000FA  6EE6               	movwf	postinc1,c
  1940  0000FC  C1E8  FFE6         	movff	_f_aptos+232,postinc1
  1941  000100  C1E9  FFE6         	movff	_f_aptos+233,postinc1
  1942  000104  ECA7  F005         	call	___wmul	;wreg free
  1943  000108  0E29               	movlw	low (_f_aptos+41)
  1944  00010A  2401               	addwf	btemp^0,w,c
  1945  00010C  6ED9               	movwf	fsr2l,c
  1946  00010E  0E01               	movlw	high (_f_aptos+41)
  1947  000110  2002               	addwfc	(btemp+1)^0,w,c
  1948  000112  6EDA               	movwf	fsr2h,c
  1949  000114  CFE0 FFDF          	movff	bsr,indf2	;volatile
  1950  000118  0E2E               	movlw	46
  1951  00011A  6EE6               	movwf	postinc1,c
  1952  00011C  0E00               	movlw	0
  1953  00011E  6EE6               	movwf	postinc1,c
  1954  000120  C1E8  FFE6         	movff	_f_aptos+232,postinc1
  1955  000124  C1E9  FFE6         	movff	_f_aptos+233,postinc1
  1956  000128  ECA7  F005         	call	___wmul	;wreg free
  1957  00012C  0E2B               	movlw	low (_f_aptos+43)
  1958  00012E  2401               	addwf	btemp^0,w,c
  1959  000130  6ED9               	movwf	fsr2l,c
  1960  000132  0E01               	movlw	high (_f_aptos+43)
  1961  000134  2002               	addwfc	(btemp+1)^0,w,c
  1962  000136  6EDA               	movwf	fsr2h,c
  1963  000138  CFD8 FFDF          	movff	status,indf2	;volatile
  1964  00013C  0E2E               	movlw	46
  1965  00013E  6EE6               	movwf	postinc1,c
  1966  000140  0E00               	movlw	0
  1967  000142  6EE6               	movwf	postinc1,c
  1968  000144  C1E8  FFE6         	movff	_f_aptos+232,postinc1
  1969  000148  C1E9  FFE6         	movff	_f_aptos+233,postinc1
  1970  00014C  ECA7  F005         	call	___wmul	;wreg free
  1971  000150  0E27               	movlw	low (_f_aptos+39)
  1972  000152  2401               	addwf	btemp^0,w,c
  1973  000154  6ED9               	movwf	fsr2l,c
  1974  000156  0E01               	movlw	high (_f_aptos+39)
  1975  000158  2002               	addwfc	(btemp+1)^0,w,c
  1976  00015A  6EDA               	movwf	fsr2h,c
  1977  00015C  0E00               	movlw	0
  1978  00015E  6EDE               	movwf	postinc2,c
  1979  000160  0E00               	movlw	0
  1980  000162  6EDD               	movwf	postdec2,c
  1981  000164                     i2l243:
  1982  000164  0E2E               	movlw	46
  1983  000166  6EE6               	movwf	postinc1,c
  1984  000168  0E00               	movlw	0
  1985  00016A  6EE6               	movwf	postinc1,c
  1986  00016C  C1E8  FFE6         	movff	_f_aptos+232,postinc1
  1987  000170  C1E9  FFE6         	movff	_f_aptos+233,postinc1
  1988  000174  ECA7  F005         	call	___wmul	;wreg free
  1989  000178  0E00               	movlw	low _f_aptos
  1990  00017A  6E21               	movwf	??_IRQ_Timer0^0,c
  1991  00017C  0E01               	movlw	high _f_aptos
  1992  00017E  6E22               	movwf	(??_IRQ_Timer0+1)^0,c
  1993  000180  0E07               	movlw	7
  1994  000182  2621               	addwf	??_IRQ_Timer0^0,f,c
  1995  000184  0E00               	movlw	0
  1996  000186  2222               	addwfc	(??_IRQ_Timer0+1)^0,f,c
  1997  000188  5001               	movf	btemp^0,w,c
  1998  00018A  2621               	addwf	??_IRQ_Timer0^0,f,c
  1999  00018C  5002               	movf	(btemp+1)^0,w,c
  2000  00018E  2222               	addwfc	(??_IRQ_Timer0+1)^0,f,c
  2001  000190  5039               	movf	_index^0,w,c
  2002  000192  2421               	addwf	??_IRQ_Timer0^0,w,c
  2003  000194  6ED9               	movwf	fsr2l,c
  2004  000196  503A               	movf	(_index+1)^0,w,c
  2005  000198  2022               	addwfc	(??_IRQ_Timer0+1)^0,w,c
  2006  00019A  6EDA               	movwf	fsr2h,c
  2007  00019C  CFFD FFDF          	movff	tosl,indf2	;volatile
  2008  0001A0  4A39               	infsnz	_index^0,f,c
  2009  0001A2  2A3A               	incf	(_index+1)^0,f,c
  2010  0001A4  0006               	pop		;# 
  2011  0001A6  50FC               	movf	252,w,c	;volatile
  2012  0001A8  A4D8               	btfss	status,2,c
  2013  0001AA  EFD9  F000         	goto	i2u48_41
  2014  0001AE  EFDB  F000         	goto	i2u48_40
  2015  0001B2                     i2u48_41:
  2016  0001B2  EFB2  F000         	goto	i2l243
  2017  0001B6                     i2u48_40:
  2018  0001B6  EFEF  F000         	goto	i2l1302
  2019  0001BA                     i2l1300:
  2020  0001BA  0E2E               	movlw	46
  2021  0001BC  6EE6               	movwf	postinc1,c
  2022  0001BE  0E00               	movlw	0
  2023  0001C0  6EE6               	movwf	postinc1,c
  2024  0001C2  C1E8  FFE6         	movff	_f_aptos+232,postinc1
  2025  0001C6  C1E9  FFE6         	movff	_f_aptos+233,postinc1
  2026  0001CA  ECA7  F005         	call	___wmul	;wreg free
  2027  0001CE  0E02               	movlw	low (_f_aptos+2)
  2028  0001D0  2401               	addwf	btemp^0,w,c
  2029  0001D2  6ED9               	movwf	fsr2l,c
  2030  0001D4  0E01               	movlw	high (_f_aptos+2)
  2031  0001D6  2002               	addwfc	(btemp+1)^0,w,c
  2032  0001D8  6EDA               	movwf	fsr2h,c
  2033  0001DA  0E00               	movlw	0
  2034  0001DC  6EDF               	movwf	indf2,c
  2035  0001DE                     i2l1302:
  2036  0001DE  EC11  F007         	call	_scheduler	;wreg free
  2037  0001E2  C001  F1E8         	movff	btemp,_f_aptos+232
  2038  0001E6  C002  F1E9         	movff	btemp+1,_f_aptos+233
  2039  0001EA  0E2E               	movlw	46
  2040  0001EC  6EE6               	movwf	postinc1,c
  2041  0001EE  0E00               	movlw	0
  2042  0001F0  6EE6               	movwf	postinc1,c
  2043  0001F2  C1E8  FFE6         	movff	_f_aptos+232,postinc1
  2044  0001F6  C1E9  FFE6         	movff	_f_aptos+233,postinc1
  2045  0001FA  ECA7  F005         	call	___wmul	;wreg free
  2046  0001FE  0E27               	movlw	low (_f_aptos+39)
  2047  000200  2401               	addwf	btemp^0,w,c
  2048  000202  6ED9               	movwf	fsr2l,c
  2049  000204  0E01               	movlw	high (_f_aptos+39)
  2050  000206  2002               	addwfc	(btemp+1)^0,w,c
  2051  000208  6EDA               	movwf	fsr2h,c
  2052  00020A  50DE               	movf	postinc2,w,c
  2053  00020C  10DE               	iorwf	postinc2,w,c
  2054  00020E  A4D8               	btfss	status,2,c
  2055  000210  EF0C  F001         	goto	i2u49_41
  2056  000214  EF0E  F001         	goto	i2u49_40
  2057  000218                     i2u49_41:
  2058  000218  EF29  F001         	goto	i2l1308
  2059  00021C                     i2u49_40:
  2060  00021C  0E2E               	movlw	46
  2061  00021E  6EE6               	movwf	postinc1,c
  2062  000220  0E00               	movlw	0
  2063  000222  6EE6               	movwf	postinc1,c
  2064  000224  C1E8  FFE6         	movff	_f_aptos+232,postinc1
  2065  000228  C1E9  FFE6         	movff	_f_aptos+233,postinc1
  2066  00022C  ECA7  F005         	call	___wmul	;wreg free
  2067  000230  0E05               	movlw	low (_f_aptos+5)
  2068  000232  2401               	addwf	btemp^0,w,c
  2069  000234  6ED9               	movwf	fsr2l,c
  2070  000236  0E01               	movlw	high (_f_aptos+5)
  2071  000238  2002               	addwfc	(btemp+1)^0,w,c
  2072  00023A  6EDA               	movwf	fsr2h,c
  2073  00023C  CFDE F021          	movff	postinc2,??_IRQ_Timer0
  2074  000240  CFDD F022          	movff	postdec2,??_IRQ_Timer0+1
  2075  000244  C021  FFFD         	movff	??_IRQ_Timer0,tosl	;volatile
  2076  000248  C022  FFFE         	movff	??_IRQ_Timer0+1,tosh	;volatile
  2077  00024C  6AFF               	clrf	255,c	;volatile
  2078  00024E  EFBC  F001         	goto	i2l249
  2079  000252                     i2l1308:
  2080  000252  0E2E               	movlw	46
  2081  000254  6EE6               	movwf	postinc1,c
  2082  000256  0E00               	movlw	0
  2083  000258  6EE6               	movwf	postinc1,c
  2084  00025A  C1E8  FFE6         	movff	_f_aptos+232,postinc1
  2085  00025E  C1E9  FFE6         	movff	_f_aptos+233,postinc1
  2086  000262  ECA7  F005         	call	___wmul	;wreg free
  2087  000266  0E02               	movlw	low (_f_aptos+2)
  2088  000268  2401               	addwf	btemp^0,w,c
  2089  00026A  6ED9               	movwf	fsr2l,c
  2090  00026C  0E01               	movlw	high (_f_aptos+2)
  2091  00026E  2002               	addwfc	(btemp+1)^0,w,c
  2092  000270  6EDA               	movwf	fsr2h,c
  2093  000272  0E01               	movlw	1
  2094  000274  6EDF               	movwf	indf2,c
  2095  000276  0E2E               	movlw	46
  2096  000278  6EE6               	movwf	postinc1,c
  2097  00027A  0E00               	movlw	0
  2098  00027C  6EE6               	movwf	postinc1,c
  2099  00027E  C1E8  FFE6         	movff	_f_aptos+232,postinc1
  2100  000282  C1E9  FFE6         	movff	_f_aptos+233,postinc1
  2101  000286  ECA7  F005         	call	___wmul	;wreg free
  2102  00028A  0E2A               	movlw	low (_f_aptos+42)
  2103  00028C  2401               	addwf	btemp^0,w,c
  2104  00028E  6ED9               	movwf	fsr2l,c
  2105  000290  0E01               	movlw	high (_f_aptos+42)
  2106  000292  2002               	addwfc	(btemp+1)^0,w,c
  2107  000294  6EDA               	movwf	fsr2h,c
  2108  000296  50DF               	movf	indf2,w,c
  2109  000298  6E21               	movwf	??_IRQ_Timer0^0,c
  2110  00029A  5021               	movf	??_IRQ_Timer0^0,w,c
  2111  00029C  0E2E               	movlw	46
  2112  00029E  6EE6               	movwf	postinc1,c
  2113  0002A0  0E00               	movlw	0
  2114  0002A2  6EE6               	movwf	postinc1,c
  2115  0002A4  C1E8  FFE6         	movff	_f_aptos+232,postinc1
  2116  0002A8  C1E9  FFE6         	movff	_f_aptos+233,postinc1
  2117  0002AC  ECA7  F005         	call	___wmul	;wreg free
  2118  0002B0  0E29               	movlw	low (_f_aptos+41)
  2119  0002B2  2401               	addwf	btemp^0,w,c
  2120  0002B4  6ED9               	movwf	fsr2l,c
  2121  0002B6  0E01               	movlw	high (_f_aptos+41)
  2122  0002B8  2002               	addwfc	(btemp+1)^0,w,c
  2123  0002BA  6EDA               	movwf	fsr2h,c
  2124  0002BC  50DF               	movf	indf2,w,c
  2125  0002BE  6EE0               	movwf	224,c	;volatile
  2126  0002C0  0E2E               	movlw	46
  2127  0002C2  6EE6               	movwf	postinc1,c
  2128  0002C4  0E00               	movlw	0
  2129  0002C6  6EE6               	movwf	postinc1,c
  2130  0002C8  C1E8  FFE6         	movff	_f_aptos+232,postinc1
  2131  0002CC  C1E9  FFE6         	movff	_f_aptos+233,postinc1
  2132  0002D0  ECA7  F005         	call	___wmul	;wreg free
  2133  0002D4  0E2B               	movlw	low (_f_aptos+43)
  2134  0002D6  2401               	addwf	btemp^0,w,c
  2135  0002D8  6ED9               	movwf	fsr2l,c
  2136  0002DA  0E01               	movlw	high (_f_aptos+43)
  2137  0002DC  2002               	addwfc	(btemp+1)^0,w,c
  2138  0002DE  6EDA               	movwf	fsr2h,c
  2139  0002E0  50DF               	movf	indf2,w,c
  2140  0002E2  6ED8               	movwf	216,c	;volatile
  2141  0002E4  0E2E               	movlw	46
  2142  0002E6  6EE6               	movwf	postinc1,c
  2143  0002E8  0E00               	movlw	0
  2144  0002EA  6EE6               	movwf	postinc1,c
  2145  0002EC  C1E8  FFE6         	movff	_f_aptos+232,postinc1
  2146  0002F0  C1E9  FFE6         	movff	_f_aptos+233,postinc1
  2147  0002F4  ECA7  F005         	call	___wmul	;wreg free
  2148  0002F8  0E27               	movlw	low (_f_aptos+39)
  2149  0002FA  2401               	addwf	btemp^0,w,c
  2150  0002FC  6ED9               	movwf	fsr2l,c
  2151  0002FE  0E01               	movlw	high (_f_aptos+39)
  2152  000300  2002               	addwfc	(btemp+1)^0,w,c
  2153  000302  6EDA               	movwf	fsr2h,c
  2154  000304  CFDE F021          	movff	postinc2,??_IRQ_Timer0
  2155  000308  CFDD F022          	movff	postdec2,??_IRQ_Timer0+1
  2156  00030C  0EFF               	movlw	255
  2157  00030E  2421               	addwf	??_IRQ_Timer0^0,w,c
  2158  000310  6E39               	movwf	_index^0,c
  2159  000312  0EFF               	movlw	255
  2160  000314  2022               	addwfc	(??_IRQ_Timer0+1)^0,w,c
  2161  000316  6E3A               	movwf	(_index+1)^0,c
  2162  000318  6AFC               	clrf	252,c	;volatile
  2163  00031A  EFB3  F001         	goto	i2l1316
  2164  00031E                     i2l251:
  2165  00031E  0005               	push		;# 
  2166  000320  0E2E               	movlw	46
  2167  000322  6EE6               	movwf	postinc1,c
  2168  000324  0E00               	movlw	0
  2169  000326  6EE6               	movwf	postinc1,c
  2170  000328  C1E8  FFE6         	movff	_f_aptos+232,postinc1
  2171  00032C  C1E9  FFE6         	movff	_f_aptos+233,postinc1
  2172  000330  ECA7  F005         	call	___wmul	;wreg free
  2173  000334  0E00               	movlw	low _f_aptos
  2174  000336  6E21               	movwf	??_IRQ_Timer0^0,c
  2175  000338  0E01               	movlw	high _f_aptos
  2176  00033A  6E22               	movwf	(??_IRQ_Timer0+1)^0,c
  2177  00033C  0E07               	movlw	7
  2178  00033E  2621               	addwf	??_IRQ_Timer0^0,f,c
  2179  000340  0E00               	movlw	0
  2180  000342  2222               	addwfc	(??_IRQ_Timer0+1)^0,f,c
  2181  000344  5001               	movf	btemp^0,w,c
  2182  000346  2621               	addwf	??_IRQ_Timer0^0,f,c
  2183  000348  5002               	movf	(btemp+1)^0,w,c
  2184  00034A  2222               	addwfc	(??_IRQ_Timer0+1)^0,f,c
  2185  00034C  5039               	movf	_index^0,w,c
  2186  00034E  2421               	addwf	??_IRQ_Timer0^0,w,c
  2187  000350  6ED9               	movwf	fsr2l,c
  2188  000352  503A               	movf	(_index+1)^0,w,c
  2189  000354  2022               	addwfc	(??_IRQ_Timer0+1)^0,w,c
  2190  000356  6EDA               	movwf	fsr2h,c
  2191  000358  50DF               	movf	indf2,w,c
  2192  00035A  6EFD               	movwf	253,c	;volatile
  2193  00035C  6AFE               	clrf	254,c	;volatile
  2194  00035E  6AFF               	clrf	255,c	;volatile
  2195  000360  0639               	decf	_index^0,f,c
  2196  000362  A0D8               	btfss	status,0,c
  2197  000364  063A               	decf	(_index+1)^0,f,c
  2198  000366                     i2l1316:
  2199  000366  5039               	movf	_index^0,w,c
  2200  000368  103A               	iorwf	(_index+1)^0,w,c
  2201  00036A  A4D8               	btfss	status,2,c
  2202  00036C  EFBA  F001         	goto	i2u50_41
  2203  000370  EFBC  F001         	goto	i2u50_40
  2204  000374                     i2u50_41:
  2205  000374  EF8F  F001         	goto	i2l251
  2206  000378                     i2u50_40:
  2207  000378                     i2l249:
  2208  000378  8EF2               	bsf	242,7,c	;volatile
  2209  00037A                     
  2210                           ;timer.c: 66:          quantum = 12;
  2211  00037A  0E00               	movlw	0
  2212  00037C  6E3C               	movwf	(_quantum+1)^0,c
  2213  00037E  0E0C               	movlw	12
  2214  000380  6E3B               	movwf	_quantum^0,c
  2215  000382                     i2l1320:
  2216                           
  2217                           ;timer.c: 70:       if (controle_delay() && 0 == 1)
  2218  000382  EC71  F003         	call	_controle_delay	;wreg free
  2219  000386                     i2l268:
  2220  000386  C02E  F00C         	movff	??_IRQ_Timer0+13,btemp+11
  2221  00038A  C02D  F00B         	movff	??_IRQ_Timer0+12,btemp+10
  2222  00038E  C02C  F00A         	movff	??_IRQ_Timer0+11,btemp+9
  2223  000392  C02B  F009         	movff	??_IRQ_Timer0+10,btemp+8
  2224  000396  C02A  F002         	movff	??_IRQ_Timer0+9,btemp+1
  2225  00039A  C029  F001         	movff	??_IRQ_Timer0+8,btemp
  2226  00039E  C028  FFF4         	movff	??_IRQ_Timer0+7,prodh
  2227  0003A2  C027  FFF3         	movff	??_IRQ_Timer0+6,prodl
  2228  0003A6  C026  FFDA         	movff	??_IRQ_Timer0+5,fsr2h
  2229  0003AA  C025  FFD9         	movff	??_IRQ_Timer0+4,fsr2l
  2230  0003AE  C024  FFE2         	movff	??_IRQ_Timer0+3,fsr1h
  2231  0003B2  C023  FFE1         	movff	??_IRQ_Timer0+2,fsr1l
  2232  0003B6  0011               	retfie		f
  2233  0003B8                     __end_of_IRQ_Timer0:
  2234                           	callstack 0
  2235                           
  2236 ;; *************** function _scheduler *****************
  2237 ;; Defined at:
  2238 ;;		line 11 in file "scheduler.c"
  2239 ;; Parameters:    Size  Location     Type
  2240 ;;		None
  2241 ;; Auto vars:     Size  Location     Type
  2242 ;;		None
  2243 ;; Return value:  Size  Location     Type
  2244 ;;                  2  [STACK] unsigned int 
  2245 ;; Registers used:
  2246 ;;		wreg, fsr1l, fsr1h, fsr2l, fsr2h, status,2, status,0, btemp, btemp+1, btemp+8, btemp+9, btemp+10, btemp+11, prodl, p
      +rodh
  2247 ;; Tracked objects:
  2248 ;;		On entry : 0/0
  2249 ;;		On exit  : 0/0
  2250 ;;		Unchanged: 0/0
  2251 ;; Data sizes:     COMRAM   BANK0   BANK1   BANK2   BANK3   BANK4   BANK5
  2252 ;;      Params:         0       0       0       0       0       0       0
  2253 ;;      Locals:         0       0       0       0       0       0       0
  2254 ;;      Temps:          0       0       0       0       0       0       0
  2255 ;;      Totals:         0       0       0       0       0       0       0
  2256 ;;Total ram usage:        0 bytes
  2257 ;; Hardware stack levels used:    1
  2258 ;; Hardware stack levels required when called:    2
  2259 ;; This function calls:
  2260 ;;		_rr_scheduler
  2261 ;; This function is called by:
  2262 ;;		_IRQ_Timer0
  2263 ;; This function uses a reentrant model
  2264 ;;
  2265                           
  2266                           	psect	text13
  2267  000E22                     __ptext13:
  2268                           	callstack 0
  2269  000E22                     _scheduler:
  2270                           	callstack 23
  2271  000E22                     
  2272                           ;scheduler.c: 14:    return rr_scheduler();
  2273  000E22  EC3C  F006         	call	_rr_scheduler	;wreg free
  2274  000E26                     
  2275                           ; _scheduler: autosize = 0, savesize = 0, parsavesize = 0, tempsize = 0 parsize = 0, arg
      +                          size = 0, vargsize = 0
  2276  000E26  0012               	return		;funcret
  2277  000E28                     __end_of_scheduler:
  2278                           	callstack 0
  2279                           
  2280 ;; *************** function _rr_scheduler *****************
  2281 ;; Defined at:
  2282 ;;		line 20 in file "scheduler.c"
  2283 ;; Parameters:    Size  Location     Type
  2284 ;;		None
  2285 ;; Auto vars:     Size  Location     Type
  2286 ;;  next_task       2  [STACK] unsigned int 
  2287 ;; Return value:  Size  Location     Type
  2288 ;;                  2  [STACK] unsigned int 
  2289 ;; Registers used:
  2290 ;;		wreg, fsr1l, fsr1h, fsr2l, fsr2h, status,2, status,0, btemp, btemp+1, btemp+8, btemp+9, btemp+10, btemp+11, prodl, p
      +rodh
  2291 ;; Tracked objects:
  2292 ;;		On entry : 0/0
  2293 ;;		On exit  : 0/0
  2294 ;;		Unchanged: 0/0
  2295 ;; Data sizes:     COMRAM   BANK0   BANK1   BANK2   BANK3   BANK4   BANK5
  2296 ;;      Params:         0       0       0       0       0       0       0
  2297 ;;      Locals:         0       0       0       0       0       0       0
  2298 ;;      Temps:          0       0       0       0       0       0       0
  2299 ;;      Totals:         0       0       0       0       0       0       0
  2300 ;;Total ram usage:        0 bytes
  2301 ;; Hardware stack levels used:    1
  2302 ;; Hardware stack levels required when called:    1
  2303 ;; This function calls:
  2304 ;;		___lwmod
  2305 ;; This function is called by:
  2306 ;;		_scheduler
  2307 ;; This function uses a reentrant model
  2308 ;;
  2309                           
  2310                           	psect	text14
  2311  000C78                     __ptext14:
  2312                           	callstack 0
  2313  000C78                     _rr_scheduler:
  2314                           	callstack 0
  2315                           
  2316                           ; autosize = 2, savesize = 0, parsavesize = 0, tempsize = 0 parsize = 0, argsize = 0 var
      +                          gsize = 0, retsize = 0 argfudge = 0
  2317  000C78  52E6               	movf	postinc1,f,c
  2318  000C7A  52E6               	movf	postinc1,f,c
  2319  000C7C                     
  2320                           ;scheduler.c: 22:    u_int next_task = f_aptos.task_running;
  2321                           ;stkvar	_next_task @ sp[(-2)+0]
  2322  000C7C  0EFE               	movlw	-2
  2323  000C7E  C1E8  FFE3         	movff	_f_aptos+232,plusw1
  2324  000C82  0EFF               	movlw	-1
  2325  000C84  C1E9  FFE3         	movff	_f_aptos+233,plusw1
  2326  000C88                     l1090:
  2327                           
  2328                           ;scheduler.c: 25:    {;scheduler.c: 26:       next_task = (next_task + 1) % f_aptos.read
      +                          y_queue_size;
  2329  000C88  C1E6  FFE6         	movff	_f_aptos+230,postinc1
  2330  000C8C  C1E7  FFE6         	movff	_f_aptos+231,postinc1
  2331                           
  2332                           ;stkvar	_next_task @ sp[(-4)+0]
  2333  000C90  0EFC               	movlw	-4
  2334  000C92  50E3               	movf	plusw1,w,c
  2335  000C94  0F01               	addlw	1
  2336  000C96  6E0B               	movwf	(btemp+10)^0,c
  2337  000C98  0EFD               	movlw	-3
  2338  000C9A  CFE3 F00C          	movff	plusw1,btemp+11
  2339  000C9E  0E00               	movlw	0
  2340  000CA0  220C               	addwfc	(btemp+11)^0,f,c
  2341  000CA2  C00B  FFE6         	movff	btemp+10,postinc1
  2342  000CA6  C00C  FFE6         	movff	btemp+11,postinc1
  2343  000CAA  EC20  F004         	call	___lwmod	;wreg free
  2344                           
  2345                           ;stkvar	_next_task @ sp[(-2)+0]
  2346  000CAE  0EFE               	movlw	-2
  2347  000CB0  C001  FFE3         	movff	btemp,plusw1
  2348  000CB4  0EFF               	movlw	-1
  2349  000CB6  C002  FFE3         	movff	btemp+1,plusw1
  2350  000CBA                     
  2351                           ;scheduler.c: 27:    } while (f_aptos.ready_queue[next_task].task_state != READY);
  2352                           ;stkvar	_next_task @ sp[(-2)+0]
  2353  000CBA  0EFE               	movlw	-2
  2354  000CBC  CFE3 F00B          	movff	plusw1,btemp+10
  2355  000CC0  0EFF               	movlw	-1
  2356  000CC2  CFE3 F00C          	movff	plusw1,btemp+11
  2357  000CC6  0E2E               	movlw	46
  2358  000CC8  020B               	mulwf	(btemp+10)^0,c
  2359  000CCA  CFF3 F009          	movff	prodl,btemp+8
  2360  000CCE  CFF4 F00A          	movff	prodh,btemp+9
  2361  000CD2  020C               	mulwf	(btemp+11)^0,c
  2362  000CD4  50F3               	movf	prodl,w,c
  2363  000CD6  260A               	addwf	(btemp+9)^0,f,c
  2364  000CD8  0E02               	movlw	low (_f_aptos+2)
  2365  000CDA  2409               	addwf	(btemp+8)^0,w,c
  2366  000CDC  6ED9               	movwf	fsr2l,c
  2367  000CDE  0E01               	movlw	high (_f_aptos+2)
  2368  000CE0  200A               	addwfc	(btemp+9)^0,w,c
  2369  000CE2  6EDA               	movwf	fsr2h,c
  2370  000CE4  50DF               	movf	indf2,w,c
  2371  000CE6  A4D8               	btfss	status,2,c
  2372  000CE8  EF78  F006         	goto	u6_41
  2373  000CEC  EF7A  F006         	goto	u6_40
  2374  000CF0                     u6_41:
  2375  000CF0  EF44  F006         	goto	l1090
  2376  000CF4                     u6_40:
  2377  000CF4                     
  2378                           ;scheduler.c: 29:    return next_task;
  2379                           ;stkvar	_next_task @ sp[(-2)+0]
  2380  000CF4  0EFE               	movlw	-2
  2381  000CF6  CFE3 F001          	movff	plusw1,btemp
  2382  000CFA  0EFF               	movlw	-1
  2383  000CFC  CFE3 F002          	movff	plusw1,btemp+1
  2384  000D00                     
  2385                           ; _rr_scheduler: autosize = 2, savesize = 0, parsavesize = 0, tempsize = 0 parsize = 0, 
      +                          argsize = 0, vargsize = 0
  2386  000D00  52E5               	movf	postdec1,f,c
  2387  000D02  52E5               	movf	postdec1,f,c
  2388  000D04  0012               	return		;funcret
  2389  000D06                     __end_of_rr_scheduler:
  2390                           	callstack 0
  2391                           
  2392 ;; *************** function ___lwmod *****************
  2393 ;; Defined at:
  2394 ;;		line 7 in file "C:\Program Files\Microchip\xc8\v2.20\pic\sources\c99\common\lwmod.c"
  2395 ;; Parameters:    Size  Location     Type
  2396 ;;  dividend        2  [STACK] unsigned int 
  2397 ;;  divisor         2  [STACK] unsigned int 
  2398 ;; Auto vars:     Size  Location     Type
  2399 ;;  counter         1  [STACK] unsigned char 
  2400 ;; Return value:  Size  Location     Type
  2401 ;;                  2  [STACK] unsigned int 
  2402 ;; Registers used:
  2403 ;;		wreg, fsr1l, fsr1h, status,2, status,0, btemp, btemp+1, btemp+8, btemp+9, btemp+10, btemp+11, prodl
  2404 ;; Tracked objects:
  2405 ;;		On entry : 0/0
  2406 ;;		On exit  : 0/0
  2407 ;;		Unchanged: 0/0
  2408 ;; Data sizes:     COMRAM   BANK0   BANK1   BANK2   BANK3   BANK4   BANK5
  2409 ;;      Params:         0       0       0       0       0       0       0
  2410 ;;      Locals:         0       0       0       0       0       0       0
  2411 ;;      Temps:          0       0       0       0       0       0       0
  2412 ;;      Totals:         0       0       0       0       0       0       0
  2413 ;;Total ram usage:        0 bytes
  2414 ;; Hardware stack levels used:    1
  2415 ;; This function calls:
  2416 ;;		Nothing
  2417 ;; This function is called by:
  2418 ;;		_rr_scheduler
  2419 ;; This function uses a reentrant model
  2420 ;;
  2421                           
  2422                           	psect	text15
  2423  000840                     __ptext15:
  2424                           	callstack 0
  2425  000840                     ___lwmod:
  2426                           	callstack 0
  2427                           
  2428                           ; autosize = 1, savesize = 0, parsavesize = 0, tempsize = 0 parsize = 4, argsize = 4 var
      +                          gsize = 0, retsize = 0 argfudge = 0
  2429  000840  52E6               	movf	postinc1,f,c
  2430  000842                     
  2431                           ;stkvar	_divisor @ sp[(-1)+-4]
  2432  000842  0EFB               	movlw	-5
  2433  000844  CFE3 F001          	movff	plusw1,btemp
  2434  000848  0EFC               	movlw	-4
  2435  00084A  50E3               	movf	plusw1,w,c
  2436  00084C  1001               	iorwf	btemp^0,w,c
  2437  00084E  B4D8               	btfsc	status,2,c
  2438  000850  EF2C  F004         	goto	u1_41
  2439  000854  EF2E  F004         	goto	u1_40
  2440  000858                     u1_41:
  2441  000858  EF89  F004         	goto	l1062
  2442  00085C                     u1_40:
  2443  00085C                     
  2444                           ;stkvar	_counter @ sp[(-1)+0]
  2445  00085C  0EFF               	movlw	-1
  2446  00085E  6AE3               	clrf	plusw1,c
  2447  000860  2AE3               	incf	plusw1,f,c
  2448  000862  EF44  F004         	goto	l1052
  2449  000866                     l1048:
  2450                           
  2451                           ;stkvar	_divisor @ sp[(-1)+-4]
  2452  000866  0EFB               	movlw	-5
  2453  000868  50E3               	movf	plusw1,w,c
  2454  00086A  90D8               	bcf	status,0,c
  2455  00086C  34E8               	rlcf	wreg,w,c
  2456  00086E  6E01               	movwf	btemp^0,c
  2457  000870  0EFB               	movlw	-5
  2458  000872  C001  FFE3         	movff	btemp,plusw1
  2459  000876  0EFC               	movlw	-4
  2460  000878  50E3               	movf	plusw1,w,c
  2461  00087A  34E8               	rlcf	wreg,w,c
  2462  00087C  6E01               	movwf	btemp^0,c
  2463  00087E  0EFC               	movlw	-4
  2464  000880  C001  FFE3         	movff	btemp,plusw1
  2465  000884                     
  2466                           ;stkvar	_counter @ sp[(-1)+0]
  2467  000884  0EFF               	movlw	-1
  2468  000886  2AE3               	incf	plusw1,f,c
  2469  000888                     l1052:
  2470                           
  2471                           ;stkvar	_divisor @ sp[(-1)+-4]
  2472  000888  0EFC               	movlw	-4
  2473  00088A  AEE3               	btfss	plusw1,7,c
  2474  00088C  EF4A  F004         	goto	u2_41
  2475  000890  EF4C  F004         	goto	u2_40
  2476  000894                     u2_41:
  2477  000894  EF33  F004         	goto	l1048
  2478  000898                     u2_40:
  2479  000898                     l1054:
  2480                           
  2481                           ;stkvar	_divisor @ sp[(-1)+-4]
  2482  000898  0EFB               	movlw	-5
  2483  00089A  CFE3 F00B          	movff	plusw1,btemp+10
  2484  00089E  0EFC               	movlw	-4
  2485  0008A0  CFE3 F00C          	movff	plusw1,btemp+11
  2486                           
  2487                           ;stkvar	_dividend @ sp[(-1)+-2]
  2488  0008A4  0EFD               	movlw	-3
  2489  0008A6  CFE3 F009          	movff	plusw1,btemp+8
  2490  0008AA  0EFE               	movlw	-2
  2491  0008AC  CFE3 F00A          	movff	plusw1,btemp+9
  2492  0008B0  500B               	movf	(btemp+10)^0,w,c
  2493  0008B2  5C09               	subwf	(btemp+8)^0,w,c
  2494  0008B4  500C               	movf	(btemp+11)^0,w,c
  2495  0008B6  580A               	subwfb	(btemp+9)^0,w,c
  2496  0008B8  A0D8               	btfss	status,0,c
  2497  0008BA  EF61  F004         	goto	u3_41
  2498  0008BE  EF63  F004         	goto	u3_40
  2499  0008C2                     u3_41:
  2500  0008C2  EF75  F004         	goto	l1058
  2501  0008C6                     u3_40:
  2502  0008C6                     
  2503                           ;stkvar	_divisor @ sp[(-1)+-4]
  2504                           ;stkvar	_dividend @ sp[(-1)+-2]
  2505  0008C6  0EFD               	movlw	-3
  2506  0008C8  50E3               	movf	plusw1,w,c
  2507  0008CA  6E01               	movwf	btemp^0,c
  2508  0008CC  0EFB               	movlw	-5
  2509  0008CE  50E3               	movf	plusw1,w,c
  2510  0008D0  5E01               	subwf	btemp^0,f,c
  2511  0008D2  0EFD               	movlw	-3
  2512  0008D4  C001  FFE3         	movff	btemp,plusw1
  2513  0008D8  0EFE               	movlw	-2
  2514  0008DA  50E3               	movf	plusw1,w,c
  2515  0008DC  6E01               	movwf	btemp^0,c
  2516  0008DE  0EFC               	movlw	-4
  2517  0008E0  50E3               	movf	plusw1,w,c
  2518  0008E2  5A01               	subwfb	btemp^0,f,c
  2519  0008E4  0EFE               	movlw	-2
  2520  0008E6  C001  FFE3         	movff	btemp,plusw1
  2521  0008EA                     l1058:
  2522                           
  2523                           ;stkvar	_divisor @ sp[(-1)+-4]
  2524  0008EA  90D8               	bcf	status,0,c
  2525  0008EC  0EFC               	movlw	-4
  2526  0008EE  32E3               	rrcf	plusw1,f,c
  2527  0008F0  0EFB               	movlw	-5
  2528  0008F2  32E3               	rrcf	plusw1,f,c
  2529  0008F4                     
  2530                           ;stkvar	_counter @ sp[(-1)+0]
  2531  0008F4  0EFF               	movlw	-1
  2532  0008F6  50E3               	movf	plusw1,w,c
  2533  0008F8  6E01               	movwf	btemp^0,c
  2534  0008FA  0E01               	movlw	1
  2535  0008FC  5E01               	subwf	btemp^0,f,c
  2536  0008FE  0EFF               	movlw	-1
  2537  000900  C001  FFE3         	movff	btemp,plusw1
  2538  000904  A4D8               	btfss	status,2,c
  2539  000906  EF87  F004         	goto	u4_41
  2540  00090A  EF89  F004         	goto	u4_40
  2541  00090E                     u4_41:
  2542  00090E  EF4C  F004         	goto	l1054
  2543  000912                     u4_40:
  2544  000912                     l1062:
  2545                           
  2546                           ;stkvar	_dividend @ sp[(-1)+-2]
  2547  000912  0EFD               	movlw	-3
  2548  000914  CFE3 F001          	movff	plusw1,btemp
  2549  000918  0EFE               	movlw	-2
  2550  00091A  CFE3 F002          	movff	plusw1,btemp+1
  2551  00091E                     
  2552                           ; ___lwmod: autosize = 1, savesize = 0, parsavesize = 0, tempsize = 0 parsize = 4, argsi
      +                          ze = 4, vargsize = 0
  2553  00091E  0EFB               	movlw	251
  2554  000920  26E1               	addwf	fsr1l,f,c
  2555  000922  0EFF               	movlw	255
  2556  000924  22E2               	addwfc	fsr1h,f,c
  2557  000926  0012               	return		;funcret
  2558  000928                     __end_of___lwmod:
  2559                           	callstack 0
  2560                           
  2561 ;; *************** function _controle_delay *****************
  2562 ;; Defined at:
  2563 ;;		line 25 in file "timer.c"
  2564 ;; Parameters:    Size  Location     Type
  2565 ;;		None
  2566 ;; Auto vars:     Size  Location     Type
  2567 ;;  i               2  [STACK] int 
  2568 ;;  flag            2  [STACK] int 
  2569 ;; Return value:  Size  Location     Type
  2570 ;;                  2  [STACK] unsigned int 
  2571 ;; Registers used:
  2572 ;;		wreg, fsr1l, fsr1h, fsr2l, fsr2h, status,2, status,0, btemp, btemp+1, btemp+8, btemp+9, btemp+10, btemp+11, prodl, p
      +rodh
  2573 ;; Tracked objects:
  2574 ;;		On entry : 0/0
  2575 ;;		On exit  : 3F/1
  2576 ;;		Unchanged: 0/0
  2577 ;; Data sizes:     COMRAM   BANK0   BANK1   BANK2   BANK3   BANK4   BANK5
  2578 ;;      Params:         0       0       0       0       0       0       0
  2579 ;;      Locals:         0       0       0       0       0       0       0
  2580 ;;      Temps:          0       0       0       0       0       0       0
  2581 ;;      Totals:         0       0       0       0       0       0       0
  2582 ;;Total ram usage:        0 bytes
  2583 ;; Hardware stack levels used:    1
  2584 ;; This function calls:
  2585 ;;		Nothing
  2586 ;; This function is called by:
  2587 ;;		_IRQ_Timer0
  2588 ;; This function uses a reentrant model
  2589 ;;
  2590                           
  2591                           	psect	text16
  2592  0006E2                     __ptext16:
  2593                           	callstack 0
  2594  0006E2                     _controle_delay:
  2595                           	callstack 0
  2596                           
  2597                           ; autosize = 4, savesize = 0, parsavesize = 0, tempsize = 0 parsize = 0, argsize = 0 var
      +                          gsize = 0, retsize = 0 argfudge = 0
  2598  0006E2  52E6               	movf	postinc1,f,c
  2599  0006E4  52E6               	movf	postinc1,f,c
  2600  0006E6  52E6               	movf	postinc1,f,c
  2601  0006E8  52E6               	movf	postinc1,f,c
  2602  0006EA                     
  2603                           ;timer.c: 27:    int i, flag = 0;
  2604                           ;stkvar	_flag @ sp[(-4)+2]
  2605  0006EA  0EFE               	movlw	-2
  2606  0006EC  6AE3               	clrf	plusw1,c
  2607  0006EE  0EFF               	movlw	-1
  2608  0006F0  6AE3               	clrf	plusw1,c
  2609                           
  2610                           ;timer.c: 30:    for (i = 0; i < f_aptos.ready_queue_size; i++)
  2611                           ;stkvar	_i @ sp[(-4)+0]
  2612  0006F2  0EFC               	movlw	-4
  2613  0006F4  6AE3               	clrf	plusw1,c
  2614  0006F6  0EFD               	movlw	-3
  2615  0006F8  6AE3               	clrf	plusw1,c
  2616  0006FA  EF03  F004         	goto	l1170
  2617  0006FE                     l1158:
  2618                           
  2619                           ; BSR set to: 1
  2620                           ;timer.c: 31:    {;timer.c: 32:       if (f_aptos.ready_queue[i].task_state == WAITING_D
      +                          ELAY)
  2621                           ;stkvar	_i @ sp[(-4)+0]
  2622  0006FE  0EFC               	movlw	-4
  2623  000700  CFE3 F00B          	movff	plusw1,btemp+10
  2624  000704  0EFD               	movlw	-3
  2625  000706  CFE3 F00C          	movff	plusw1,btemp+11
  2626  00070A  0E2E               	movlw	46
  2627  00070C  020B               	mulwf	(btemp+10)^0,c
  2628  00070E  CFF3 F009          	movff	prodl,btemp+8
  2629  000712  CFF4 F00A          	movff	prodh,btemp+9
  2630  000716  020C               	mulwf	(btemp+11)^0,c
  2631  000718  50F3               	movf	prodl,w,c
  2632  00071A  260A               	addwf	(btemp+9)^0,f,c
  2633  00071C  0E02               	movlw	low (_f_aptos+2)
  2634  00071E  2409               	addwf	(btemp+8)^0,w,c
  2635  000720  6ED9               	movwf	fsr2l,c
  2636  000722  0E01               	movlw	high (_f_aptos+2)
  2637  000724  200A               	addwfc	(btemp+9)^0,w,c
  2638  000726  6EDA               	movwf	fsr2h,c
  2639  000728  0E03               	movlw	3
  2640  00072A  18DE               	xorwf	postinc2,w,c
  2641  00072C  A4D8               	btfss	status,2,c
  2642  00072E  EF9B  F003         	goto	u15_41
  2643  000732  EF9D  F003         	goto	u15_40
  2644  000736                     u15_41:
  2645  000736  EFF4  F003         	goto	l1168
  2646  00073A                     u15_40:
  2647  00073A                     
  2648                           ; BSR set to: 1
  2649                           ;timer.c: 33:       {;timer.c: 34:          f_aptos.ready_queue[i].delay--;
  2650                           ;stkvar	_i @ sp[(-4)+0]
  2651  00073A  0EFC               	movlw	-4
  2652  00073C  CFE3 F00B          	movff	plusw1,btemp+10
  2653  000740  0EFD               	movlw	-3
  2654  000742  CFE3 F00C          	movff	plusw1,btemp+11
  2655  000746  0E2E               	movlw	46
  2656  000748  020B               	mulwf	(btemp+10)^0,c
  2657  00074A  CFF3 F009          	movff	prodl,btemp+8
  2658  00074E  CFF4 F00A          	movff	prodh,btemp+9
  2659  000752  020C               	mulwf	(btemp+11)^0,c
  2660  000754  50F3               	movf	prodl,w,c
  2661  000756  260A               	addwf	(btemp+9)^0,f,c
  2662  000758  0E2C               	movlw	low (_f_aptos+44)
  2663  00075A  2409               	addwf	(btemp+8)^0,w,c
  2664  00075C  6ED9               	movwf	fsr2l,c
  2665  00075E  0E01               	movlw	high (_f_aptos+44)
  2666  000760  200A               	addwfc	(btemp+9)^0,w,c
  2667  000762  6EDA               	movwf	fsr2h,c
  2668  000764  06DE               	decf	postinc2,f,c
  2669  000766  0E00               	movlw	0
  2670  000768  5ADD               	subwfb	postdec2,f,c
  2671  00076A                     
  2672                           ; BSR set to: 1
  2673                           ;timer.c: 35:          if (f_aptos.ready_queue[i].delay == 0)
  2674                           ;stkvar	_i @ sp[(-4)+0]
  2675  00076A  0EFC               	movlw	-4
  2676  00076C  CFE3 F00B          	movff	plusw1,btemp+10
  2677  000770  0EFD               	movlw	-3
  2678  000772  CFE3 F00C          	movff	plusw1,btemp+11
  2679  000776  0E2E               	movlw	46
  2680  000778  020B               	mulwf	(btemp+10)^0,c
  2681  00077A  CFF3 F009          	movff	prodl,btemp+8
  2682  00077E  CFF4 F00A          	movff	prodh,btemp+9
  2683  000782  020C               	mulwf	(btemp+11)^0,c
  2684  000784  50F3               	movf	prodl,w,c
  2685  000786  260A               	addwf	(btemp+9)^0,f,c
  2686  000788  0E2C               	movlw	low (_f_aptos+44)
  2687  00078A  2409               	addwf	(btemp+8)^0,w,c
  2688  00078C  6ED9               	movwf	fsr2l,c
  2689  00078E  0E01               	movlw	high (_f_aptos+44)
  2690  000790  200A               	addwfc	(btemp+9)^0,w,c
  2691  000792  6EDA               	movwf	fsr2h,c
  2692  000794  50DE               	movf	postinc2,w,c
  2693  000796  10DE               	iorwf	postinc2,w,c
  2694  000798  A4D8               	btfss	status,2,c
  2695  00079A  EFD1  F003         	goto	u16_41
  2696  00079E  EFD3  F003         	goto	u16_40
  2697  0007A2                     u16_41:
  2698  0007A2  EFF4  F003         	goto	l1168
  2699  0007A6                     u16_40:
  2700  0007A6                     
  2701                           ; BSR set to: 1
  2702                           ;timer.c: 36:          {;timer.c: 37:             f_aptos.ready_queue[i].task_state = RE
      +                          ADY;
  2703                           ;stkvar	_i @ sp[(-4)+0]
  2704  0007A6  0EFC               	movlw	-4
  2705  0007A8  CFE3 F00B          	movff	plusw1,btemp+10
  2706  0007AC  0EFD               	movlw	-3
  2707  0007AE  CFE3 F00C          	movff	plusw1,btemp+11
  2708  0007B2  0E2E               	movlw	46
  2709  0007B4  020B               	mulwf	(btemp+10)^0,c
  2710  0007B6  CFF3 F009          	movff	prodl,btemp+8
  2711  0007BA  CFF4 F00A          	movff	prodh,btemp+9
  2712  0007BE  020C               	mulwf	(btemp+11)^0,c
  2713  0007C0  50F3               	movf	prodl,w,c
  2714  0007C2  260A               	addwf	(btemp+9)^0,f,c
  2715  0007C4  0E02               	movlw	low (_f_aptos+2)
  2716  0007C6  2409               	addwf	(btemp+8)^0,w,c
  2717  0007C8  6ED9               	movwf	fsr2l,c
  2718  0007CA  0E01               	movlw	high (_f_aptos+2)
  2719  0007CC  200A               	addwfc	(btemp+9)^0,w,c
  2720  0007CE  6EDA               	movwf	fsr2h,c
  2721  0007D0  0E00               	movlw	0
  2722  0007D2  6EDF               	movwf	indf2,c
  2723  0007D4                     
  2724                           ; BSR set to: 1
  2725                           ;timer.c: 38:             flag = 1;
  2726  0007D4  0E01               	movlw	1
  2727  0007D6  6E0B               	movwf	(btemp+10)^0,c
  2728  0007D8  0E00               	movlw	0
  2729  0007DA  6E0C               	movwf	(btemp+11)^0,c
  2730                           
  2731                           ;stkvar	_flag @ sp[(-4)+2]
  2732  0007DC  0EFE               	movlw	-2
  2733  0007DE  C00B  FFE3         	movff	btemp+10,plusw1
  2734  0007E2  0EFF               	movlw	-1
  2735  0007E4  C00C  FFE3         	movff	btemp+11,plusw1
  2736  0007E8                     l1168:
  2737                           
  2738                           ; BSR set to: 1
  2739                           ;timer.c: 41:    }
  2740                           ;stkvar	_i @ sp[(-4)+0]
  2741  0007E8  0EFC               	movlw	-4
  2742  0007EA  50E3               	movf	plusw1,w,c
  2743  0007EC  0F01               	addlw	1
  2744  0007EE  6E01               	movwf	btemp^0,c
  2745  0007F0  0EFC               	movlw	-4
  2746  0007F2  C001  FFE3         	movff	btemp,plusw1
  2747  0007F6  6A01               	clrf	btemp^0,c
  2748  0007F8  0EFD               	movlw	-3
  2749  0007FA  50E3               	movf	plusw1,w,c
  2750  0007FC  2001               	addwfc	btemp^0,w,c
  2751  0007FE  6E01               	movwf	btemp^0,c
  2752  000800  0EFD               	movlw	-3
  2753  000802  C001  FFE3         	movff	btemp,plusw1
  2754  000806                     l1170:
  2755                           
  2756                           ;stkvar	_i @ sp[(-4)+0]
  2757  000806  0EFC               	movlw	-4
  2758  000808  CFE3 F001          	movff	plusw1,btemp
  2759  00080C  0101               	movlb	1	; () banked
  2760  00080E  51E6               	movf	(_f_aptos+230)& (0+255),w,b
  2761  000810  5C01               	subwf	btemp^0,w,c
  2762  000812  0EFD               	movlw	-3
  2763  000814  CFE3 F001          	movff	plusw1,btemp
  2764  000818  51E7               	movf	(_f_aptos+231)& (0+255),w,b
  2765  00081A  5801               	subwfb	btemp^0,w,c
  2766  00081C  A0D8               	btfss	status,0,c
  2767  00081E  EF13  F004         	goto	u17_41
  2768  000822  EF15  F004         	goto	u17_40
  2769  000826                     u17_41:
  2770  000826  EF7F  F003         	goto	l1158
  2771  00082A                     u17_40:
  2772  00082A                     
  2773                           ; BSR set to: 1
  2774                           ;timer.c: 43:    return flag;
  2775                           ;stkvar	_flag @ sp[(-4)+2]
  2776  00082A  0EFE               	movlw	-2
  2777  00082C  CFE3 F001          	movff	plusw1,btemp
  2778  000830  0EFF               	movlw	-1
  2779  000832  CFE3 F002          	movff	plusw1,btemp+1
  2780  000836                     
  2781                           ; BSR set to: 1
  2782                           ; _controle_delay: autosize = 4, savesize = 0, parsavesize = 0, tempsize = 0 parsize = 0
      +                          , argsize = 0, vargsize = 0
  2783  000836  52E5               	movf	postdec1,f,c
  2784  000838  52E5               	movf	postdec1,f,c
  2785  00083A  52E5               	movf	postdec1,f,c
  2786  00083C  52E5               	movf	postdec1,f,c
  2787  00083E  0012               	return		;funcret
  2788  000840                     __end_of_controle_delay:
  2789                           	callstack 0
  2790                           
  2791 ;; *************** function ___wmul *****************
  2792 ;; Defined at:
  2793 ;;		line 15 in file "C:\Program Files\Microchip\xc8\v2.20\pic\sources\c99\common\Umul16.c"
  2794 ;; Parameters:    Size  Location     Type
  2795 ;;  multiplier      2  [STACK] unsigned int 
  2796 ;;  multiplicand    2  [STACK] unsigned int 
  2797 ;; Auto vars:     Size  Location     Type
  2798 ;;  product         2  [STACK] unsigned int 
  2799 ;; Return value:  Size  Location     Type
  2800 ;;                  2  [STACK] unsigned int 
  2801 ;; Registers used:
  2802 ;;		wreg, fsr1l, fsr1h, fsr2l, fsr2h, status,2, status,0, btemp, btemp+1, btemp+11, prodl, prodh
  2803 ;; Tracked objects:
  2804 ;;		On entry : 0/0
  2805 ;;		On exit  : 0/0
  2806 ;;		Unchanged: 0/0
  2807 ;; Data sizes:     COMRAM   BANK0   BANK1   BANK2   BANK3   BANK4   BANK5
  2808 ;;      Params:         0       0       0       0       0       0       0
  2809 ;;      Locals:         0       0       0       0       0       0       0
  2810 ;;      Temps:          0       0       0       0       0       0       0
  2811 ;;      Totals:         0       0       0       0       0       0       0
  2812 ;;Total ram usage:        0 bytes
  2813 ;; Hardware stack levels used:    1
  2814 ;; This function calls:
  2815 ;;		Nothing
  2816 ;; This function is called by:
  2817 ;;		_IRQ_Timer0
  2818 ;; This function uses a reentrant model
  2819 ;;
  2820                           
  2821                           	psect	text17
  2822  000B4E                     __ptext17:
  2823                           	callstack 0
  2824  000B4E                     ___wmul:
  2825                           	callstack 0
  2826                           
  2827                           ; BSR set to: 1
  2828                           ; autosize = 2, savesize = 0, parsavesize = 0, tempsize = 0 parsize = 4, argsize = 4 var
      +                          gsize = 0, retsize = 0 argfudge = 0
  2829  000B4E  52E6               	movf	postinc1,f,c
  2830  000B50  52E6               	movf	postinc1,f,c
  2831  000B52                     
  2832                           ;stkvar	_multiplicand @ sp[(-2)+-4]
  2833  000B52  0EFA               	movlw	-6
  2834  000B54  CFE3 F00C          	movff	plusw1,btemp+11
  2835                           
  2836                           ;stkvar	_multiplier @ sp[(-2)+-2]
  2837  000B58  0EFC               	movlw	-4
  2838  000B5A  50E3               	movf	plusw1,w,c
  2839  000B5C  020C               	mulwf	(btemp+11)^0,c
  2840                           
  2841                           ;stkvar	_product @ sp[(-2)+0]
  2842  000B5E  0EFE               	movlw	-2
  2843  000B60  CFF3 FFE3          	movff	prodl,plusw1
  2844  000B64  0EFF               	movlw	-1
  2845  000B66  CFF4 FFE3          	movff	prodh,plusw1
  2846  000B6A                     
  2847                           ;stkvar	_multiplicand @ sp[(-2)+-4]
  2848  000B6A  0EFB               	movlw	251
  2849  000B6C  24E1               	addwf	fsr1l,w,c
  2850  000B6E  6ED9               	movwf	fsr2l,c
  2851  000B70  0EFF               	movlw	255
  2852  000B72  20E2               	addwfc	fsr1h,w,c
  2853  000B74  6EDA               	movwf	fsr2h,c
  2854  000B76  50DF               	movf	indf2,w,c
  2855  000B78  6E0C               	movwf	(btemp+11)^0,c
  2856                           
  2857                           ;stkvar	_multiplier @ sp[(-2)+-2]
  2858  000B7A  0EFC               	movlw	-4
  2859  000B7C  50E3               	movf	plusw1,w,c
  2860  000B7E  020C               	mulwf	(btemp+11)^0,c
  2861  000B80  CFF3 FFF4          	movff	prodl,prodh
  2862  000B84  6AF3               	clrf	243,c
  2863                           
  2864                           ;stkvar	_product @ sp[(-2)+0]
  2865  000B86  50E1               	movf	fsr1l,w,c
  2866  000B88  0FFE               	addlw	-2
  2867  000B8A  6ED9               	movwf	fsr2l,c
  2868  000B8C  50E2               	movf	fsr1h,w,c
  2869  000B8E  6EDA               	movwf	fsr2h,c
  2870  000B90  0EFF               	movlw	255
  2871  000B92  22DA               	addwfc	fsr2h,f,c
  2872  000B94  50F3               	movf	243,w,c
  2873  000B96  26DE               	addwf	postinc2,f,c
  2874  000B98  50F4               	movf	244,w,c
  2875  000B9A  22DD               	addwfc	postdec2,f,c
  2876  000B9C                     
  2877                           ;stkvar	_multiplicand @ sp[(-2)+-4]
  2878  000B9C  0EFA               	movlw	-6
  2879  000B9E  CFE3 F00C          	movff	plusw1,btemp+11
  2880                           
  2881                           ;stkvar	_multiplier @ sp[(-2)+-2]
  2882  000BA2  0EFD               	movlw	253
  2883  000BA4  24E1               	addwf	fsr1l,w,c
  2884  000BA6  6ED9               	movwf	fsr2l,c
  2885  000BA8  0EFF               	movlw	255
  2886  000BAA  20E2               	addwfc	fsr1h,w,c
  2887  000BAC  6EDA               	movwf	fsr2h,c
  2888  000BAE  50DF               	movf	indf2,w,c
  2889  000BB0  020C               	mulwf	(btemp+11)^0,c
  2890  000BB2  CFF3 FFF4          	movff	prodl,prodh
  2891  000BB6  6AF3               	clrf	243,c
  2892                           
  2893                           ;stkvar	_product @ sp[(-2)+0]
  2894  000BB8  50E1               	movf	fsr1l,w,c
  2895  000BBA  0FFE               	addlw	-2
  2896  000BBC  6ED9               	movwf	fsr2l,c
  2897  000BBE  50E2               	movf	fsr1h,w,c
  2898  000BC0  6EDA               	movwf	fsr2h,c
  2899  000BC2  0EFF               	movlw	255
  2900  000BC4  22DA               	addwfc	fsr2h,f,c
  2901  000BC6  50F3               	movf	243,w,c
  2902  000BC8  26DE               	addwf	postinc2,f,c
  2903  000BCA  50F4               	movf	244,w,c
  2904  000BCC  22DD               	addwfc	postdec2,f,c
  2905  000BCE                     
  2906                           ;stkvar	_product @ sp[(-2)+0]
  2907  000BCE  0EFE               	movlw	-2
  2908  000BD0  CFE3 F001          	movff	plusw1,btemp
  2909  000BD4  0EFF               	movlw	-1
  2910  000BD6  CFE3 F002          	movff	plusw1,btemp+1
  2911  000BDA                     
  2912                           ; ___wmul: autosize = 2, savesize = 0, parsavesize = 0, tempsize = 0 parsize = 4, argsiz
      +                          e = 4, vargsize = 0
  2913  000BDA  0EFA               	movlw	250
  2914  000BDC  26E1               	addwf	fsr1l,f,c
  2915  000BDE  0EFF               	movlw	255
  2916  000BE0  22E2               	addwfc	fsr1h,f,c
  2917  000BE2  0012               	return		;funcret
  2918  000BE4                     __end_of___wmul:
  2919                           	callstack 0
  2920  0000                     
  2921                           	psect	text18
  2922  000000                     __ptext18:
  2923                           	callstack 0
  2924  000000                     
  2925                           	psect	rparam
  2926  0000                     
  2927                           	psect	temp
  2928  000001                     btemp:
  2929                           	callstack 0
  2930  000001                     	ds	32
  2931  0000                     wtemp0	set	btemp
  2932  0000                     wtemp1	set	btemp+2
  2933  0000                     wtemp2	set	btemp+4
  2934  0000                     wtemp3	set	btemp+6
  2935  0000                     wtemp4	set	btemp+8
  2936  0000                     wtemp5	set	btemp+10
  2937  0000                     wtemp8	set	btemp+1
  2938  0000                     ttemp0	set	btemp
  2939  0000                     ttemp1	set	btemp+3
  2940  0000                     ttemp2	set	btemp+6
  2941  0000                     ttemp3	set	btemp+9
  2942  0000                     ttemp5	set	btemp+1
  2943  0000                     ttemp6	set	btemp+4
  2944  0000                     ttemp7	set	btemp+8
  2945  0000                     ltemp0	set	btemp
  2946  0000                     ltemp1	set	btemp+4
  2947  0000                     ltemp2	set	btemp+8
  2948  0000                     lltemp0	set	btemp
  2949  0000                     lltemp1	set	btemp+8
  2950  0000                     lltemp2	set	btemp+16
  2951  0000                     lltemp3	set	btemp+24
  2952                           
  2953                           	psect	idloc
  2954                           
  2955                           ;Config register IDLOC0 @ 0x200000
  2956                           ;	unspecified, using default values
  2957  200000                     	org	2097152
  2958  200000  FF                 	db	255
  2959                           
  2960                           ;Config register IDLOC1 @ 0x200001
  2961                           ;	unspecified, using default values
  2962  200001                     	org	2097153
  2963  200001  FF                 	db	255
  2964                           
  2965                           ;Config register IDLOC2 @ 0x200002
  2966                           ;	unspecified, using default values
  2967  200002                     	org	2097154
  2968  200002  FF                 	db	255
  2969                           
  2970                           ;Config register IDLOC3 @ 0x200003
  2971                           ;	unspecified, using default values
  2972  200003                     	org	2097155
  2973  200003  FF                 	db	255
  2974                           
  2975                           ;Config register IDLOC4 @ 0x200004
  2976                           ;	unspecified, using default values
  2977  200004                     	org	2097156
  2978  200004  FF                 	db	255
  2979                           
  2980                           ;Config register IDLOC5 @ 0x200005
  2981                           ;	unspecified, using default values
  2982  200005                     	org	2097157
  2983  200005  FF                 	db	255
  2984                           
  2985                           ;Config register IDLOC6 @ 0x200006
  2986                           ;	unspecified, using default values
  2987  200006                     	org	2097158
  2988  200006  FF                 	db	255
  2989                           
  2990                           ;Config register IDLOC7 @ 0x200007
  2991                           ;	unspecified, using default values
  2992  200007                     	org	2097159
  2993  200007  FF                 	db	255
  2994                           
  2995                           	psect	config
  2996                           
  2997                           ; Padding undefined space
  2998  300000                     	org	3145728
  2999  300000  FF                 	db	255
  3000                           
  3001                           ;Config register CONFIG1H @ 0x300001
  3002                           ;	Oscillator Selection bits
  3003                           ;	OSC = RCIO6, External RC oscillator, port function on RA6
  3004                           ;	Fail-Safe Clock Monitor Enable bit
  3005                           ;	FCMEN = OFF, Fail-Safe Clock Monitor disabled
  3006                           ;	Internal/External Oscillator Switchover bit
  3007                           ;	IESO = OFF, Oscillator Switchover mode disabled
  3008  300001                     	org	3145729
  3009  300001  07                 	db	7
  3010                           
  3011                           ;Config register CONFIG2L @ 0x300002
  3012                           ;	Power-up Timer Enable bit
  3013                           ;	PWRT = OFF, PWRT disabled
  3014                           ;	Brown-out Reset Enable bits
  3015                           ;	BOREN = SBORDIS, Brown-out Reset enabled in hardware only (SBOREN is disabled)
  3016                           ;	Brown Out Reset Voltage bits
  3017                           ;	BORV = 3, Minimum setting
  3018  300002                     	org	3145730
  3019  300002  1F                 	db	31
  3020                           
  3021                           ;Config register CONFIG2H @ 0x300003
  3022                           ;	Watchdog Timer Enable bit
  3023                           ;	WDT = OFF, WDT disabled (control is placed on the SWDTEN bit)
  3024                           ;	Watchdog Timer Postscale Select bits
  3025                           ;	WDTPS = 32768, 1:32768
  3026  300003                     	org	3145731
  3027  300003  1E                 	db	30
  3028                           
  3029                           ; Padding undefined space
  3030  300004                     	org	3145732
  3031  300004  FF                 	db	255
  3032                           
  3033                           ;Config register CONFIG3H @ 0x300005
  3034                           ;	CCP2 MUX bit
  3035                           ;	CCP2MX = PORTC, CCP2 input/output is multiplexed with RC1
  3036                           ;	PORTB A/D Enable bit
  3037                           ;	PBADEN = ON, PORTB<4:0> pins are configured as analog input channels on Reset
  3038                           ;	Low-Power Timer1 Oscillator Enable bit
  3039                           ;	LPT1OSC = OFF, Timer1 configured for higher power operation
  3040                           ;	MCLR Pin Enable bit
  3041                           ;	MCLRE = ON, MCLR pin enabled; RE3 input pin disabled
  3042  300005                     	org	3145733
  3043  300005  83                 	db	131
  3044                           
  3045                           ;Config register CONFIG4L @ 0x300006
  3046                           ;	Stack Full/Underflow Reset Enable bit
  3047                           ;	STVREN = ON, Stack full/underflow will cause Reset
  3048                           ;	Single-Supply ICSP Enable bit
  3049                           ;	LVP = ON, Single-Supply ICSP enabled
  3050                           ;	Extended Instruction Set Enable bit
  3051                           ;	XINST = OFF, Instruction set extension and Indexed Addressing mode disabled (Legacy mo
      +                          de)
  3052                           ;	Background Debugger Enable bit
  3053                           ;	DEBUG = 0x1, unprogrammed default
  3054  300006                     	org	3145734
  3055  300006  85                 	db	133
  3056                           
  3057                           ; Padding undefined space
  3058  300007                     	org	3145735
  3059  300007  FF                 	db	255
  3060                           
  3061                           ;Config register CONFIG5L @ 0x300008
  3062                           ;	Code Protection bit
  3063                           ;	CP0 = OFF, Block 0 (000800-001FFFh) not code-protected
  3064                           ;	Code Protection bit
  3065                           ;	CP1 = OFF, Block 1 (002000-003FFFh) not code-protected
  3066                           ;	Code Protection bit
  3067                           ;	CP2 = OFF, Block 2 (004000-005FFFh) not code-protected
  3068                           ;	Code Protection bit
  3069                           ;	CP3 = OFF, Block 3 (006000-007FFFh) not code-protected
  3070  300008                     	org	3145736
  3071  300008  0F                 	db	15
  3072                           
  3073                           ;Config register CONFIG5H @ 0x300009
  3074                           ;	Boot Block Code Protection bit
  3075                           ;	CPB = OFF, Boot block (000000-0007FFh) not code-protected
  3076                           ;	Data EEPROM Code Protection bit
  3077                           ;	CPD = OFF, Data EEPROM not code-protected
  3078  300009                     	org	3145737
  3079  300009  C0                 	db	192
  3080                           
  3081                           ;Config register CONFIG6L @ 0x30000A
  3082                           ;	Write Protection bit
  3083                           ;	WRT0 = OFF, Block 0 (000800-001FFFh) not write-protected
  3084                           ;	Write Protection bit
  3085                           ;	WRT1 = OFF, Block 1 (002000-003FFFh) not write-protected
  3086                           ;	Write Protection bit
  3087                           ;	WRT2 = OFF, Block 2 (004000-005FFFh) not write-protected
  3088                           ;	Write Protection bit
  3089                           ;	WRT3 = OFF, Block 3 (006000-007FFFh) not write-protected
  3090  30000A                     	org	3145738
  3091  30000A  0F                 	db	15
  3092                           
  3093                           ;Config register CONFIG6H @ 0x30000B
  3094                           ;	Configuration Register Write Protection bit
  3095                           ;	WRTC = OFF, Configuration registers (300000-3000FFh) not write-protected
  3096                           ;	Boot Block Write Protection bit
  3097                           ;	WRTB = OFF, Boot block (000000-0007FFh) not write-protected
  3098                           ;	Data EEPROM Write Protection bit
  3099                           ;	WRTD = OFF, Data EEPROM not write-protected
  3100  30000B                     	org	3145739
  3101  30000B  E0                 	db	224
  3102                           
  3103                           ;Config register CONFIG7L @ 0x30000C
  3104                           ;	Table Read Protection bit
  3105                           ;	EBTR0 = OFF, Block 0 (000800-001FFFh) not protected from table reads executed in other
      +                           blocks
  3106                           ;	Table Read Protection bit
  3107                           ;	EBTR1 = OFF, Block 1 (002000-003FFFh) not protected from table reads executed in other
      +                           blocks
  3108                           ;	Table Read Protection bit
  3109                           ;	EBTR2 = OFF, Block 2 (004000-005FFFh) not protected from table reads executed in other
      +                           blocks
  3110                           ;	Table Read Protection bit
  3111                           ;	EBTR3 = OFF, Block 3 (006000-007FFFh) not protected from table reads executed in other
      +                           blocks
  3112  30000C                     	org	3145740
  3113  30000C  0F                 	db	15
  3114                           
  3115                           ;Config register CONFIG7H @ 0x30000D
  3116                           ;	Boot Block Table Read Protection bit
  3117                           ;	EBTRB = OFF, Boot block (000000-0007FFh) not protected from table reads executed in ot
      +                          her blocks
  3118  30000D                     	org	3145741
  3119  30000D  40                 	db	64
  3120                           tosu	equ	0xFFF
  3121                           tosh	equ	0xFFE
  3122                           tosl	equ	0xFFD
  3123                           stkptr	equ	0xFFC
  3124                           pclatu	equ	0xFFB
  3125                           pclath	equ	0xFFA
  3126                           pcl	equ	0xFF9
  3127                           tblptru	equ	0xFF8
  3128                           tblptrh	equ	0xFF7
  3129                           tblptrl	equ	0xFF6
  3130                           tablat	equ	0xFF5
  3131                           prodh	equ	0xFF4
  3132                           prodl	equ	0xFF3
  3133                           indf0	equ	0xFEF
  3134                           postinc0	equ	0xFEE
  3135                           postdec0	equ	0xFED
  3136                           preinc0	equ	0xFEC
  3137                           plusw0	equ	0xFEB
  3138                           fsr0h	equ	0xFEA
  3139                           fsr0l	equ	0xFE9
  3140                           wreg	equ	0xFE8
  3141                           indf1	equ	0xFE7
  3142                           postinc1	equ	0xFE6
  3143                           postdec1	equ	0xFE5
  3144                           preinc1	equ	0xFE4
  3145                           plusw1	equ	0xFE3
  3146                           fsr1h	equ	0xFE2
  3147                           fsr1l	equ	0xFE1
  3148                           bsr	equ	0xFE0
  3149                           indf2	equ	0xFDF
  3150                           postinc2	equ	0xFDE
  3151                           postdec2	equ	0xFDD
  3152                           preinc2	equ	0xFDC
  3153                           plusw2	equ	0xFDB
  3154                           fsr2h	equ	0xFDA
  3155                           fsr2l	equ	0xFD9
  3156                           status	equ	0xFD8

Data Sizes:
    Strings     0
    Constant    0
    Data        2
    BSS         870
    Persistent  0
    Stack       0

Auto Spaces:
    Space          Size  Autos    Used
    COMRAM           95     14      28
    BANK0           128      0     112
    BANK1           256      0     234
    BANK2           256      0       0
    BANK3           256      0       0
    BANK4           256      0       0
    BANK5           256      0       0

Pointer List with Targets:

    p.buffer	PTR unsigned char  size(2) Largest target is 512
		 -> _uDynamicHeap(BIGRAM[512]), NULL(NULL[0]), 

    p.buffer	PTR unsigned char  size(2) Largest target is 512
		 -> _uDynamicHeap(BIGRAM[512]), NULL(NULL[0]), 

    S921pipe$buffer	PTR unsigned char  size(2) Largest target is 512
		 -> _uDynamicHeap(BIGRAM[512]), NULL(NULL[0]), 

    p.buffer	PTR unsigned char  size(2) Largest target is 512
		 -> _uDynamicHeap(BIGRAM[512]), NULL(NULL[0]), 

    sp__SRAMalloc	PTR unsigned char  size(2) Largest target is 512
		 -> _uDynamicHeap(BIGRAM[512]), NULL(NULL[0]), 

    func	PTR FTN()void  size(2) Largest target is 1
		 -> task_idle(), check_wash(), check_ironing(), task_read_buttons(), 

    new_task.task_func	PTR FTN()void  size(2) Largest target is 1
		 -> task_idle(), check_wash(), check_ironing(), task_read_buttons(), 

    S34tcb$task_func	PTR FTN()void  size(2) Largest target is 1
		 -> task_idle(), check_wash(), check_ironing(), task_read_buttons(), 

    f_aptos.ready_queue.task_func	PTR FTN()void  size(2) Largest target is 1
		 -> task_idle(), check_wash(), check_ironing(), task_read_buttons(), 


Critical Paths under _main in COMRAM

    None.

Critical Paths under _task_idle in COMRAM

    None.

Critical Paths under _task_read_buttons in COMRAM

    None.

Critical Paths under _check_wash in COMRAM

    None.

Critical Paths under _check_ironing in COMRAM

    None.

Critical Paths under _task_idle in COMRAM

    None.

Critical Paths under _task_read_buttons in COMRAM

    None.

Critical Paths under _check_wash in COMRAM

    None.

Critical Paths under _check_ironing in COMRAM

    None.

Critical Paths under _IRQ_Timer0 in COMRAM

    None.

Critical Paths under _main in BANK0

    None.

Critical Paths under _task_idle in BANK0

    None.

Critical Paths under _task_read_buttons in BANK0

    None.

Critical Paths under _check_wash in BANK0

    None.

Critical Paths under _check_ironing in BANK0

    None.

Critical Paths under _task_idle in BANK0

    None.

Critical Paths under _task_read_buttons in BANK0

    None.

Critical Paths under _check_wash in BANK0

    None.

Critical Paths under _check_ironing in BANK0

    None.

Critical Paths under _IRQ_Timer0 in BANK0

    None.

Critical Paths under _main in BANK1

    None.

Critical Paths under _task_idle in BANK1

    None.

Critical Paths under _task_read_buttons in BANK1

    None.

Critical Paths under _check_wash in BANK1

    None.

Critical Paths under _check_ironing in BANK1

    None.

Critical Paths under _task_idle in BANK1

    None.

Critical Paths under _task_read_buttons in BANK1

    None.

Critical Paths under _check_wash in BANK1

    None.

Critical Paths under _check_ironing in BANK1

    None.

Critical Paths under _IRQ_Timer0 in BANK1

    None.

Critical Paths under _main in BANK2

    None.

Critical Paths under _task_idle in BANK2

    None.

Critical Paths under _task_read_buttons in BANK2

    None.

Critical Paths under _check_wash in BANK2

    None.

Critical Paths under _check_ironing in BANK2

    None.

Critical Paths under _task_idle in BANK2

    None.

Critical Paths under _task_read_buttons in BANK2

    None.

Critical Paths under _check_wash in BANK2

    None.

Critical Paths under _check_ironing in BANK2

    None.

Critical Paths under _IRQ_Timer0 in BANK2

    None.

Critical Paths under _main in BANK3

    None.

Critical Paths under _task_idle in BANK3

    None.

Critical Paths under _task_read_buttons in BANK3

    None.

Critical Paths under _check_wash in BANK3

    None.

Critical Paths under _check_ironing in BANK3

    None.

Critical Paths under _task_idle in BANK3

    None.

Critical Paths under _task_read_buttons in BANK3

    None.

Critical Paths under _check_wash in BANK3

    None.

Critical Paths under _check_ironing in BANK3

    None.

Critical Paths under _IRQ_Timer0 in BANK3

    None.

Critical Paths under _main in BANK4

    None.

Critical Paths under _task_idle in BANK4

    None.

Critical Paths under _task_read_buttons in BANK4

    None.

Critical Paths under _check_wash in BANK4

    None.

Critical Paths under _check_ironing in BANK4

    None.

Critical Paths under _task_idle in BANK4

    None.

Critical Paths under _task_read_buttons in BANK4

    None.

Critical Paths under _check_wash in BANK4

    None.

Critical Paths under _check_ironing in BANK4

    None.

Critical Paths under _IRQ_Timer0 in BANK4

    None.

Critical Paths under _main in BANK5

    None.

Critical Paths under _task_idle in BANK5

    None.

Critical Paths under _task_read_buttons in BANK5

    None.

Critical Paths under _check_wash in BANK5

    None.

Critical Paths under _check_ironing in BANK5

    None.

Critical Paths under _task_idle in BANK5

    None.

Critical Paths under _task_read_buttons in BANK5

    None.

Critical Paths under _check_wash in BANK5

    None.

Critical Paths under _check_ironing in BANK5

    None.

Critical Paths under _IRQ_Timer0 in BANK5

    None.

Call Graph Tables:

 ---------------------------------------------------------------------------------
 (Depth) Function   	        Calls       Base Space   Used Autos Params    Refs
 ---------------------------------------------------------------------------------
 (0) _main                                                 0     0      0     210
                          _os_config
                           _os_start
                        _task_create
 ---------------------------------------------------------------------------------
 (1) _os_start                                             0     0      0       0
 ---------------------------------------------------------------------------------
 (1) _os_config                                            0     0      0     105
                       _config_tasks
                      _setup_timer_0
                        _task_create
 ---------------------------------------------------------------------------------
 (1) _task_create                                         50    46      4     105
 ---------------------------------------------------------------------------------
 (2) _setup_timer_0                                        0     0      0       0
 ---------------------------------------------------------------------------------
 (2) _config_tasks                                         0     0      0       0
 ---------------------------------------------------------------------------------
 (Depth) Function   	        Calls       Base Space   Used Autos Params    Refs
 ---------------------------------------------------------------------------------
 (3) _task_idle                                            0     0      0       0
 ---------------------------------------------------------------------------------
 (Depth) Function   	        Calls       Base Space   Used Autos Params    Refs
 ---------------------------------------------------------------------------------
 (3) _task_read_buttons                                   12    12      0      90
 ---------------------------------------------------------------------------------
 (Depth) Function   	        Calls       Base Space   Used Autos Params    Refs
 ---------------------------------------------------------------------------------
 (3) _check_wash                                           8     8      0      90
                           _run_wash
 ---------------------------------------------------------------------------------
 (4) _run_wash                                             0     0      0       0
 ---------------------------------------------------------------------------------
 (Depth) Function   	        Calls       Base Space   Used Autos Params    Refs
 ---------------------------------------------------------------------------------
 (3) _check_ironing                                        0     0      0      15
                        _run_ironing
 ---------------------------------------------------------------------------------
 (4) _run_ironing                                          6     0      6      15
 ---------------------------------------------------------------------------------
 (Depth) Function   	        Calls       Base Space   Used Autos Params    Refs
 ---------------------------------------------------------------------------------
 (3) _task_idle                                            0     0      0       0
 ---------------------------------------------------------------------------------
 (Depth) Function   	        Calls       Base Space   Used Autos Params    Refs
 ---------------------------------------------------------------------------------
 (3) _task_read_buttons                                   12    12      0      90
 ---------------------------------------------------------------------------------
 (Depth) Function   	        Calls       Base Space   Used Autos Params    Refs
 ---------------------------------------------------------------------------------
 (3) _check_wash                                           8     8      0      90
                           _run_wash
 ---------------------------------------------------------------------------------
 (4) _run_wash                                             0     0      0       0
 ---------------------------------------------------------------------------------
 (Depth) Function   	        Calls       Base Space   Used Autos Params    Refs
 ---------------------------------------------------------------------------------
 (3) _check_ironing                                        0     0      0      15
                        _run_ironing
 ---------------------------------------------------------------------------------
 (4) _run_ironing                                          6     0      6      15
 ---------------------------------------------------------------------------------
 (Depth) Function   	        Calls       Base Space   Used Autos Params    Refs
 ---------------------------------------------------------------------------------
 (5) _IRQ_Timer0                                          14    14      0     345
                                              0 COMRAM    14    14      0
                             ___wmul
                     _controle_delay
                          _scheduler
 ---------------------------------------------------------------------------------
 (6) _scheduler                                            0     0      0     150
                       _rr_scheduler
 ---------------------------------------------------------------------------------
 (7) _rr_scheduler                                         2     2      0     150
                            ___lwmod
 ---------------------------------------------------------------------------------
 (8) ___lwmod                                              5     1      4     105
 ---------------------------------------------------------------------------------
 (6) _controle_delay                                       4     4      0      90
 ---------------------------------------------------------------------------------
 (6) ___wmul                                               6     2      4     105
 ---------------------------------------------------------------------------------
 Estimated maximum stack depth 8
 ---------------------------------------------------------------------------------

 Call Graph Graphs:

 _main (ROOT)
   _os_config
     _config_tasks
     _setup_timer_0
     _task_create
   _os_start
   _task_create

 _task_idle (ROOT)

 _task_read_buttons (ROOT)

 _check_wash (ROOT)
   _run_wash

 _check_ironing (ROOT)
   _run_ironing

 _task_idle (ROOT)

 _task_read_buttons (ROOT)

 _check_wash (ROOT)
   _run_wash

 _check_ironing (ROOT)
   _run_ironing

 _IRQ_Timer0 (ROOT)
   ___wmul
   _controle_delay
   _scheduler
     _rr_scheduler
       ___lwmod

 Address spaces:
Name               Size   Autos  Total    Cost      Usage
BIGRAM             5FF      0     200      17       33.4%
EEDATA             100      0       0       0        0.0%
BITBANK5           100      0       0      16        0.0%
BANK5              100      0       0      14        0.0%
BITBANK4           100      0       0      12        0.0%
BANK4              100      0       0      13        0.0%
BITBANK3           100      0       0      10        0.0%
BANK3              100      0       0      11        0.0%
BITBANK2           100      0       0       8        0.0%
BANK2              100      0       0       9        0.0%
BITBANK1           100      0       0       6        0.0%
BANK1              100      0      EA       7       91.4%
BITBANK0            80      0       0       4        0.0%
BANK0               80      0      70       5       87.5%
BITCOMRAM           5F      0       0       0        0.0%
COMRAM              5F      E      1C       1       29.5%
BITSFR               0      0       0     200        0.0%
SFR                  0      0       0     200        0.0%
STACK                0      0       0       2        0.0%
NULL                 0      0       0       0        0.0%
ABS                  0      0     176      15        0.0%
DATA                 0      0     376       3        0.0%
CODE                 0      0       0       0        0.0%


Microchip Technology PIC18 Macro Assembler V2.20 build 20200408173844 
Symbol Table                                                                                   Thu Dec 10 23:40:00 2020

                        l25 0DA0                          l26 0DA0                          l82 09F6  
                        l91 0E1C                          l92 0E1C                          l85 0E1A  
                        l88 0DE8                          u51 09EA     __size_of_controle_delay 015E  
                       l140 03E0                         l141 0498                         l136 0E04  
                       l234 0836                         l162 0B4C                         l226 0E14  
                       l139 03C0                         l165 0A00                         l149 0562  
                       l175 0C6E                         l184 0E26                         l371 0BDA  
                       l189 0D00                         l879 091E                         _BSR 000FE0  
                       _TOS 000FFD                         wreg 000FE8                 _run_ironing 0BE4  
              fp__task_idle 0000                        l1100 0DCC                        l1102 0DD0  
                      l1120 0AE0                        l1112 0AAA                        l1200 0420  
                      l1104 0DE4                        l1050 0884                        l1122 0AF4  
                      l1130 0B12                        l1114 0AC0                        l1210 04A6  
                      l1202 0434                        l1106 0E16                        l1060 08F4  
                      l1052 0888                        l1044 0842                        l1108 0E22  
                      l1140 0BE4                        l1132 0B28                        l1124 0AFA  
                      l1116 0AC6                        l1220 050C                        l1212 04BE  
                      l1204 0448                        l1054 0898                        l1046 085C  
                      l1062 0912                        l1150 0C20                        l1142 0BFA  
                      l1134 0B40                        l1126 0B02                        l1118 0ACA  
                      l1230 0588                        l1214 04D0                        l1206 0488  
                      l1070 096C                        l1160 073A                        l1056 08C6  
                      l1048 0866                        l1152 0C2A                        l1144 0BFC  
                      l1136 0B42                        l1128 0B0E                        l1240 0602  
                      l1232 059C                        l1216 04E4                        l1208 048C  
                      l1080 0E06                        l1072 097C                        l1162 076A  
                      l1170 0806                        l1058 08EA                        l1090 0C88  
                      l1154 0C6A                        l1146 0C00                        l1138 0B48  
                      l1250 0670                        l1242 0620                        l1226 0562  
                      l1218 04F8                        l1082 0E0E                        l1074 099E  
                      l1066 0930                        l1180 0B9C                        l1172 082A  
                      l1164 07A6                        l1156 06EA                        l1092 0CBA  
                      l1148 0C16                        l1260 06D0                        l1252 0692  
                      l1244 0646                        l1228 0574                        l1084 0E12  
                      l1076 09B2                        l1068 094A                        l1182 0BCE  
                      l1166 07D4                        l1158 06FE                        l1094 0CF4  
                      l1270 0A4A                        l1262 0A00                        l1254 06A6  
                      l1246 064E                        l1238 05A4                        l1190 03CE  
                      l1086 0DEA                        l1078 09F2                        l1176 0B52  
                      l1168 07E8                        l1088 0C7C                        l1280 0A90  
                      l1272 0A4E                        l1264 0A12                        l1248 0668  
                      l1256 06AA                        l1192 03DC                        l1178 0B6A  
                      l1274 0A56                        l1266 0A26                        l1258 06BC  
                      l1194 03EE                        l1098 0DA8                        l1186 0D5C  
                      l1268 0A38                        l1276 0A6A                        l1196 0406  
                      l1188 0D9C                        l1278 0A7E                        l1198 0418  
                      _WREG 000FE8                        u1_40 085C                        u1_41 0858  
                      u2_40 0898                        u2_41 0894                        u3_40 08C6  
                      u3_41 08C2                        u4_40 0912                        u4_41 090E  
                      u6_40 0CF4                        u6_41 0CF0                        u7_20 0AC0  
                      u7_21 0ABC                        u8_20 0AE0                        u8_21 0ADC  
                      u9_20 0AF4                        u9_21 0AF0       __end_of_check_ironing 0AAA  
                      _flag 0037                        _main 0D5C                        fsr0h 000FEA  
                      fsr1h 000FE2                        fsr2h 000FDA                        fsr0l 000FE9  
                      indf2 000FDF                        fsr1l 000FE1                        fsr2l 000FD9  
                      btemp 0001                        prodh 000FF4                        prodl 000FF3  
                      start 000C                ___param_bank 000000                 ?_IRQ_Timer0 0021  
           __end_of___lwmod 0928                       i2l251 031E                       i2l243 0164  
                     i2l249 0378                       i2l268 0386                       u10_20 0B28  
                     u10_21 0B24                       u11_20 0B40                       u11_21 0B3C  
                     u12_20 0BFA                       u20_20 03EE                       u12_21 0BF6  
                     u20_21 03EA                       u13_20 0C16                       u21_20 0406  
                     u13_21 0C12                       u21_21 0402                       u22_20 0418  
                     u14_21 0C62                       u22_21 0414                       u31_21 05FA  
                     u23_21 0480                       u15_40 073A                       u15_41 0736  
                     u32_20 0646                       u24_20 04A6                       u40_21 0A42  
                     u32_21 0642                       u24_21 04A2                       u16_40 07A6  
                     u16_41 07A2                       u25_20 04BE                       u41_21 0A5C  
                     u33_21 0660                       u25_21 04BA                       u17_40 082A  
                     _TMR0L 000FD6                       u17_41 0826                       u42_20 0A7E  
                     u34_20 0680                       u26_20 04D0                       u18_20 03CE  
                     u42_21 0A7A                       u34_21 067A                       u26_21 04CC  
                     u18_21 03CA                       u34_26 0682                       u43_20 0A90  
                     u35_20 06BC                       u19_20 03DC                       u43_21 0A8C  
                     u35_21 06B8                       u27_21 0544                       u19_21 03D8  
                     u36_20 06D0                       u28_20 0574                       u44_21 0A96  
                     u36_21 06CC                       u28_21 0570                       u37_20 0A12  
                     u29_20 0588                       u37_21 0A0E                       u29_21 0584  
                     u38_20 0A26                       u38_21 0A22                       u39_20 0A38  
                     u39_21 0A34                       _index 0039                       tablat 000FF5  
                     ltemp0 0001                       ltemp1 0005                       ltemp2 0009  
                     plusw0 000FEB                       plusw1 000FE3                       plusw2 000FDB  
                     ttemp0 0001                       ttemp1 0004                       ttemp2 0007  
                     ttemp3 000A                       ttemp5 0002                       ttemp6 0005  
                     ttemp7 0009                       status 000FD8                       wtemp0 0001  
                     wtemp1 0003                       wtemp2 0005                       wtemp3 0007  
                     wtemp4 0009                       wtemp5 000B                       wtemp8 0002  
           __initialization 0D06                __end_of_main 0DA8               __activetblptr 000000  
                    i2l1300 01BA                      i2l1310 0318                      i2l1302 01DE  
                    i2l1312 0320                      i2l1304 01EA                      i2l1320 0382  
                    i2l1314 0360                      i2l1306 021C                      i2l1316 0366  
                    i2l1308 0252                      i2l1318 037A                      i2l1290 0076  
                    i2l1282 004A                      i2l1292 00A8                      i2l1284 005A  
                    i2l1294 00AC                      i2l1286 005E                      i2l1296 01A0  
                    i2l1288 0064                      i2l1298 01A6         __size_of_IRQ_Timer0 03B0  
                    _STATUS 000FD8                      _STKPTR 000FFC                      ___wmul 0B4E  
            _controle_delay 06E2                      clear_0 0D26                      clear_1 0D38  
                    clear_2 0D44                      clear_3 0D50                __pdataCOMRAM 003B  
          __end_of_os_start 0E1C                      lltemp0 0001                      lltemp1 0009  
                    lltemp2 0011                      lltemp3 0019        __end_of_config_tasks 0E06  
                    tblptrh 000FF7                      tblptrl 000FF6                      tblptru 000FF8  
          __end_of_run_wash 0B4E                  __accesstop 0080     __end_of__initialization 0D56  
             ___rparam_used 000001              __pcstackCOMRAM 0021                  ___inthi_sp 049C  
    __end_of_controle_delay 0840                  __pbssBANK0 0080                  __pbssBANK1 0100  
                _check_wash 055A               __uDynamicHeap 01EA          __size_of_scheduler 0006  
              ??_IRQ_Timer0 0021          __size_of_os_config 0042          __size_of_task_idle 0006  
         _task_read_buttons 03B8                     i2u50_40 0378                     i2u50_41 0374  
                   i2u45_40 005A                     i2u45_41 0056                     i2u46_40 0076  
                   i2u46_41 0072                     i2u47_40 00A8                     i2u47_41 00A4  
                   i2u48_40 01B6                     i2u48_41 01B2                     i2u49_40 021C  
                   i2u49_41 0218          __end_of_IRQ_Timer0 03B8                     __Hparam 0000  
                   __Lparam 0000        __size_of_task_create 00D8             __size_of___wmul 0096  
                   ___lwmod 0840                     _f_aptos 0100                     __pcinit 0D06  
     __size_of_config_tasks 001C                     __ramtop 0600                     __ptext0 0D5C  
                   __ptext1 0E16                     __ptext2 0DA8                     __ptext3 0928  
                   __ptext4 0E06                     __ptext5 0DEA                     __ptext6 0E1C  
                   __ptext7 03B8                     __ptext8 055A                     __ptext9 0AAA  
 __end_of_task_read_buttons 055A      __size_of_check_ironing 00AA            fp__check_ironing 0000  
                 _T0CONbits 000FD5                     _quantum 003B           __end_of_scheduler 0E28  
            __pintcode_body 0014        end_of_initialization 0D56           __end_of_os_config 0DEA  
         __end_of_task_idle 0E22                     int_func 0014       __end_of_setup_timer_0 0E16  
              _config_tasks 0DEA                     postdec0 000FED                     postdec1 000FE5  
                   postdec2 000FDD                     postinc0 000FEE                     postinc1 000FE6  
                   postinc2 000FDE                   _PORTCbits 000F82                   _PORTDbits 000F83  
                 _TRISCbits 000F94                   _TRISDbits 000F95        __size_of_run_ironing 0094  
             _check_ironing 0A00              __end_of___wmul 0BE4               __pidataCOMRAM 0E28  
       __size_of_check_wash 0188  __size_of_task_read_buttons 01A2         start_initialization 0D06  
               __pbssBIGRAM 01EA                 __pbssCOMRAM 002F                   _f_clothes 0080  
                 _i_machine 002F                   __pintcode 0008           __size_of_os_start 0006  
         __size_of_run_wash 00A4        __end_of_rr_scheduler 0D06                   _scheduler 0E22  
                 _os_config 0DA8                   _w_machine 0033                   _task_idle 0E1C  
        __end_of_check_wash 06E2        fp__task_read_buttons 0000                    __Hrparam 0000  
                  __Lrparam 0000         __end_of_task_create 0A00            __size_of___lwmod 00E8  
    __size_of_setup_timer_0 0010                    __ptext10 0A00                    __ptext11 0BE4  
                  __ptext13 0E22                    __ptext14 0C78                    __ptext15 0840  
                  __ptext16 06E2                    __ptext17 0B4E                    __ptext18 0000  
             __size_of_main 004C                    us30_2999 0592                    _os_start 0E16  
                  _run_wash 0AAA       __size_of_rr_scheduler 008E                  _INTCONbits 000FF2  
                  intlevel1 0000                    intlevel2 0000         __end_of_run_ironing 0C78  
               _task_create 0928               fp__check_wash 0000               _setup_timer_0 0E06  
              _rr_scheduler 0C78                  _IRQ_Timer0 0008  
